(dp0
S'./SimFiles/FarFieldPointSource_5011.872MeV_Cos1.0.inc1.id1.sim'
p1
(dp2
S'Cos'
p3
S'1.0'
p4
sS'numberOfTriggers'
p5
F100000.0
sS'MeV'
p6
S'5011.872'
p7
sS'numberOfSimulatedEvents'
p8
F1004216.0
ssS'./SimFiles/FarFieldPointSource_1.584MeV_Cos0.6.inc1.id1.sim'
p9
(dp10
g3
S'0.6'
p11
sg5
F100000.0
sg6
S'1.584'
p12
sg8
F4853890.0
ssS'./SimFiles/FarFieldPointSource_1584.893MeV_Cos0.8.inc1.id1.sim'
p13
(dp14
g3
S'0.8'
p15
sg5
F100000.0
sg6
S'1584.893'
p16
sg8
F1110428.0
ssS'./SimFiles/FarFieldPointSource_1.000MeV_Cos0.9.inc1.id1.sim'
p17
(dp18
g3
S'0.9'
p19
sg5
F100000.0
sg6
S'1.000'
p20
sg8
F4634009.0
ssS'./SimFiles/FarFieldPointSource_100.000MeV_Cos0.9.inc1.id1.sim'
p21
(dp22
g3
S'0.9'
p23
sg5
F100000.0
sg6
S'100.000'
p24
sg8
F2108729.0
ssS'./SimFiles/FarFieldPointSource_1.584MeV_Cos0.8.inc1.id1.sim'
p25
(dp26
g3
S'0.8'
p27
sg5
F100000.0
sg6
S'1.584'
p28
sg8
F4532589.0
ssS'./SimFiles/FarFieldPointSource_3162.277MeV_Cos1.0.inc1.id1.sim'
p29
(dp30
g3
S'1.0'
p31
sg5
F100000.0
sg6
S'3162.277'
p32
sg8
F1069331.0
ssS'./SimFiles/FarFieldPointSource_0.316MeV_Cos0.7.inc1.id1.sim'
p33
(dp34
g3
S'0.7'
p35
sg5
F100000.0
sg6
S'0.316'
p36
sg8
F5657170.0
ssS'./SimFiles/FarFieldPointSource_15.848MeV_Cos0.9.inc1.id1.sim'
p37
(dp38
g3
S'0.9'
p39
sg5
F100000.0
sg6
S'15.848'
p40
sg8
F3491048.0
ssS'./SimFiles/FarFieldPointSource_0.316MeV_Cos0.9.inc1.id1.sim'
p41
(dp42
g3
S'0.9'
p43
sg5
F100000.0
sg6
S'0.316'
p44
sg8
F5082985.0
ssS'./SimFiles/FarFieldPointSource_100.000MeV_Cos0.8.inc1.id1.sim'
p45
(dp46
g3
S'0.8'
p47
sg5
F100000.0
sg6
S'100.000'
p48
sg8
F2043272.0
ssS'./SimFiles/FarFieldPointSource_1.000MeV_Cos0.8.inc1.id1.sim'
p49
(dp50
g3
S'0.8'
p51
sg5
F100000.0
sg6
S'1.000'
p52
sg8
F4832421.0
ssS'./SimFiles/FarFieldPointSource_15.848MeV_Cos0.6.inc1.id1.sim'
p53
(dp54
g3
S'0.6'
p55
sg5
F100000.0
sg6
S'15.848'
p56
sg8
F3474787.0
ssS'./SimFiles/FarFieldPointSource_50.118MeV_Cos0.7.inc1.id1.sim'
p57
(dp58
g3
S'0.7'
p59
sg5
F100000.0
sg6
S'50.118'
p60
sg8
F2458653.0
ssS'./SimFiles/FarFieldPointSource_3162.277MeV_Cos0.9.inc1.id1.sim'
p61
(dp62
g3
S'0.9'
p63
sg5
F100000.0
sg6
S'3162.277'
p64
sg8
F1013499.0
ssS'./SimFiles/FarFieldPointSource_1.000MeV_Cos0.7.inc1.id1.sim'
p65
(dp66
g3
S'0.7'
p67
sg5
F100000.0
sg6
S'1.000'
p68
sg8
F5026190.0
ssS'./SimFiles/FarFieldPointSource_3.162MeV_Cos0.6.inc1.id1.sim'
p69
(dp70
g3
S'0.6'
p71
sg5
F100000.0
sg6
S'3.162'
p72
sg8
F4543462.0
ssS'./SimFiles/FarFieldPointSource_1584.893MeV_Cos1.0.inc1.id1.sim'
p73
(dp74
g3
S'1.0'
p75
sg5
F100000.0
sg6
S'1584.893'
p76
sg8
F1200070.0
ssS'./SimFiles/FarFieldPointSource_100.000MeV_Cos0.7.inc1.id1.sim'
p77
(dp78
g3
S'0.7'
p79
sg5
F100000.0
sg6
S'100.000'
p80
sg8
F1998300.0
ssS'./SimFiles/FarFieldPointSource_10.000MeV_Cos1.0.inc1.id1.sim'
p81
(dp82
g3
S'1.0'
p83
sg5
F100000.0
sg6
S'10.000'
p84
sg8
F4002124.0
ssS'./SimFiles/FarFieldPointSource_1000.000MeV_Cos1.0.inc1.id1.sim'
p85
(dp86
g3
S'1.0'
p87
sg5
F100000.0
sg6
S'1000.000'
p88
sg8
F1300706.0
ssS'./SimFiles/FarFieldPointSource_5.011MeV_Cos0.5.inc1.id1.sim'
p89
(dp90
g3
S'0.5'
p91
sg5
F100000.0
sg6
S'5.011'
p92
sg8
F4428908.0
ssS'./SimFiles/FarFieldPointSource_316.227MeV_Cos0.6.inc1.id1.sim'
p93
(dp94
g3
S'0.6'
p95
sg5
F100000.0
sg6
S'316.227'
p96
sg8
F1474421.0
ssS'./SimFiles/FarFieldPointSource_5011.872MeV_Cos0.9.inc1.id1.sim'
p97
(dp98
g3
S'0.9'
p99
sg5
F100000.0
sg6
S'5011.872'
p100
sg8
F966993.0
ssS'./SimFiles/FarFieldPointSource_501.187MeV_Cos0.5.inc1.id1.sim'
p101
(dp102
g3
S'0.5'
p103
sg5
F100000.0
sg6
S'501.187'
p104
sg8
F1391068.0
ssS'./SimFiles/FarFieldPointSource_1000.000MeV_Cos0.7.inc1.id1.sim'
p105
(dp106
g3
S'0.7'
p107
sg5
F100000.0
sg6
S'1000.000'
p108
sg8
F1215136.0
ssS'./SimFiles/FarFieldPointSource_50.118MeV_Cos0.6.inc1.id1.sim'
p109
(dp110
g3
S'0.6'
p111
sg5
F100000.0
sg6
S'50.118'
p112
sg8
F2434242.0
ssS'./SimFiles/FarFieldPointSource_10.000MeV_Cos0.7.inc1.id1.sim'
p113
(dp114
g3
S'0.7'
p115
sg5
F100000.0
sg6
S'10.000'
p116
sg8
F3833728.0
ssS'./SimFiles/FarFieldPointSource_3.162MeV_Cos0.9.inc1.id1.sim'
p117
(dp118
g3
S'0.9'
p119
sg5
F100000.0
sg6
S'3.162'
p120
sg8
F4262146.0
ssS'./SimFiles/FarFieldPointSource_1.584MeV_Cos0.5.inc1.id1.sim'
p121
(dp122
g3
S'0.5'
p123
sg5
F100000.0
sg6
S'1.584'
p124
sg8
F4952875.0
ssS'./SimFiles/FarFieldPointSource_100.000MeV_Cos1.0.inc1.id1.sim'
p125
(dp126
g3
S'1.0'
p127
sg5
F100000.0
sg6
S'100.000'
p128
sg8
F2288699.0
ssS'./SimFiles/FarFieldPointSource_1.000MeV_Cos1.0.inc1.id1.sim'
p129
(dp130
g3
S'1.0'
p131
sg5
F100000.0
sg6
S'1.000'
p132
sg8
F4543269.0
ssS'./SimFiles/FarFieldPointSource_15.848MeV_Cos0.8.inc1.id1.sim'
p133
(dp134
g3
S'0.8'
p135
sg5
F100000.0
sg6
S'15.848'
p136
sg8
F3458954.0
ssS'./SimFiles/FarFieldPointSource_5.011MeV_Cos1.0.inc1.id1.sim'
p137
(dp138
g3
S'1.0'
p139
sg5
F100000.0
sg6
S'5.011'
p140
sg8
F4258326.0
ssS'./SimFiles/FarFieldPointSource_31.622MeV_Cos0.8.inc1.id1.sim'
p141
(dp142
g3
S'0.8'
p143
sg5
F100000.0
sg6
S'31.622'
p144
sg8
F2844223.0
ssS'./SimFiles/FarFieldPointSource_10.000MeV_Cos0.6.inc1.id1.sim'
p145
(dp146
g3
S'0.6'
p147
sg5
F100000.0
sg6
S'10.000'
p148
sg8
F3861798.0
ssS'./SimFiles/FarFieldPointSource_1000.000MeV_Cos0.6.inc1.id1.sim'
p149
(dp150
g3
S'0.6'
p151
sg5
F100000.0
sg6
S'1000.000'
p152
sg8
F1232463.0
ssS'./SimFiles/FarFieldPointSource_158.489MeV_Cos0.7.inc1.id1.sim'
p153
(dp154
g3
S'0.7'
p155
sg5
F100000.0
sg6
S'158.489'
p156
sg8
F1760382.0
ssS'./SimFiles/FarFieldPointSource_316.227MeV_Cos1.0.inc1.id1.sim'
p157
(dp158
g3
S'1.0'
p159
sg5
F100000.0
sg6
S'316.227'
p160
sg8
F1660069.0
ssS'./SimFiles/FarFieldPointSource_0.316MeV_Cos1.0.inc1.id1.sim'
p161
(dp162
g3
S'1.0'
p163
sg5
F100000.0
sg6
S'0.316'
p164
sg8
F5142289.0
ssS'./SimFiles/FarFieldPointSource_0.501MeV_Cos0.8.inc1.id1.sim'
p165
(dp166
g3
S'0.8'
p167
sg5
F100000.0
sg6
S'0.501'
p168
sg8
F5458937.0
ssS'./SimFiles/FarFieldPointSource_1.000MeV_Cos0.6.inc1.id1.sim'
p169
(dp170
g3
S'0.6'
p171
sg5
F100000.0
sg6
S'1.000'
p172
sg8
F5207275.0
ssS'./SimFiles/FarFieldPointSource_316.227MeV_Cos0.9.inc1.id1.sim'
p173
(dp174
g3
S'0.9'
p175
sg5
F100000.0
sg6
S'316.227'
p176
sg8
F1517223.0
ssS'./SimFiles/FarFieldPointSource_100.000MeV_Cos0.6.inc1.id1.sim'
p177
(dp178
g3
S'0.6'
p179
sg5
F100000.0
sg6
S'100.000'
p180
sg8
F1972561.0
ssS'./SimFiles/FarFieldPointSource_1584.893MeV_Cos0.5.inc1.id1.sim'
p181
(dp182
g3
S'0.5'
p183
sg5
F100000.0
sg6
S'1584.893'
p184
sg8
F1225527.0
ssS'./SimFiles/FarFieldPointSource_3162.277MeV_Cos0.5.inc1.id1.sim'
p185
(dp186
g3
S'0.5'
p187
sg5
F100000.0
sg6
S'3162.277'
p188
sg8
F1175183.0
ssS'./SimFiles/FarFieldPointSource_1000.000MeV_Cos0.8.inc1.id1.sim'
p189
(dp190
g3
S'0.8'
p191
sg5
F100000.0
sg6
S'1000.000'
p192
sg8
F1191978.0
ssS'./SimFiles/FarFieldPointSource_10.000MeV_Cos0.5.inc1.id1.sim'
p193
(dp194
g3
S'0.5'
p195
sg5
F100000.0
sg6
S'10.000'
p196
sg8
F3921775.0
ssS'./SimFiles/FarFieldPointSource_10.000MeV_Cos0.8.inc1.id1.sim'
p197
(dp198
g3
S'0.8'
p199
sg5
F100000.0
sg6
S'10.000'
p200
sg8
F3819496.0
ssS'./SimFiles/FarFieldPointSource_1000.000MeV_Cos0.5.inc1.id1.sim'
p201
(dp202
g3
S'0.5'
p203
sg5
F100000.0
sg6
S'1000.000'
p204
sg8
F1282387.0
ssS'./SimFiles/FarFieldPointSource_158.489MeV_Cos1.0.inc1.id1.sim'
p205
(dp206
g3
S'1.0'
p207
sg5
F100000.0
sg6
S'158.489'
p208
sg8
F2001379.0
ssS'./SimFiles/FarFieldPointSource_1.584MeV_Cos0.7.inc1.id1.sim'
p209
(dp210
g3
S'0.7'
p211
sg5
F100000.0
sg6
S'1.584'
p212
sg8
F4684127.0
ssS'./SimFiles/FarFieldPointSource_5011.872MeV_Cos0.7.inc1.id1.sim'
p213
(dp214
g3
S'0.7'
p215
sg5
F100000.0
sg6
S'5011.872'
p216
sg8
F1039060.0
ssS'./SimFiles/FarFieldPointSource_3162.277MeV_Cos0.7.inc1.id1.sim'
p217
(dp218
g3
S'0.7'
p219
sg5
F100000.0
sg6
S'3162.277'
p220
sg8
F1074625.0
ssS'./SimFiles/FarFieldPointSource_0.316MeV_Cos0.6.inc1.id1.sim'
p221
(dp222
g3
S'0.6'
p223
sg5
F100000.0
sg6
S'0.316'
p224
sg8
F6004380.0
ssS'./SimFiles/FarFieldPointSource_31.622MeV_Cos0.7.inc1.id1.sim'
p225
(dp226
g3
S'0.7'
p227
sg5
F100000.0
sg6
S'31.622'
p228
sg8
F2838558.0
ssS'./SimFiles/FarFieldPointSource_15.848MeV_Cos0.7.inc1.id1.sim'
p229
(dp230
g3
S'0.7'
p231
sg5
F100000.0
sg6
S'15.848'
p232
sg8
F3446443.0
ssS'./SimFiles/FarFieldPointSource_15.848MeV_Cos0.5.inc1.id1.sim'
p233
(dp234
g3
S'0.5'
p235
sg5
F100000.0
sg6
S'15.848'
p236
sg8
F3472645.0
ssS'./SimFiles/FarFieldPointSource_501.187MeV_Cos1.0.inc1.id1.sim'
p237
(dp238
g3
S'1.0'
p239
sg5
F100000.0
sg6
S'501.187'
p240
sg8
F1489864.0
ssS'./SimFiles/FarFieldPointSource_31.622MeV_Cos0.9.inc1.id1.sim'
p241
(dp242
g3
S'0.9'
p243
sg5
F100000.0
sg6
S'31.622'
p244
sg8
F2908423.0
ssS'./SimFiles/FarFieldPointSource_50.118MeV_Cos0.8.inc1.id1.sim'
p245
(dp246
g3
S'0.8'
p247
sg5
F100000.0
sg6
S'50.118'
p248
sg8
F2495353.0
ssS'./SimFiles/FarFieldPointSource_10.000MeV_Cos0.9.inc1.id1.sim'
p249
(dp250
g3
S'0.9'
p251
sg5
F100000.0
sg6
S'10.000'
p252
sg8
F3830433.0
ssS'./SimFiles/FarFieldPointSource_1000.000MeV_Cos0.9.inc1.id1.sim'
p253
(dp254
g3
S'0.9'
p255
sg5
F100000.0
sg6
S'1000.000'
p256
sg8
F1197435.0
ssS'./SimFiles/FarFieldPointSource_3.162MeV_Cos0.8.inc1.id1.sim'
p257
(dp258
g3
S'0.8'
p259
sg5
F100000.0
sg6
S'3.162'
p260
sg8
F4352411.0
ssS'./SimFiles/FarFieldPointSource_5011.872MeV_Cos0.6.inc1.id1.sim'
p261
(dp262
g3
S'0.6'
p263
sg5
F100000.0
sg6
S'5011.872'
p264
sg8
F1092622.0
ssS'./SimFiles/FarFieldPointSource_0.158MeV_Cos0.6.inc1.id1.sim'
p265
(dp266
g3
S'0.6'
p267
sg5
F100000.0
sg6
S'0.158'
p268
sg8
F5423307.0
ssS'./SimFiles/FarFieldPointSource_1.584MeV_Cos1.0.inc1.id1.sim'
p269
(dp270
g3
S'1.0'
p271
sg5
F100000.0
sg6
S'1.584'
p272
sg8
F4366338.0
ssS'./SimFiles/FarFieldPointSource_100.000MeV_Cos0.5.inc1.id1.sim'
p273
(dp274
g3
S'0.5'
p275
sg5
F100000.0
sg6
S'100.000'
p276
sg8
F1956601.0
ssS'./SimFiles/FarFieldPointSource_501.187MeV_Cos0.6.inc1.id1.sim'
p277
(dp278
g3
S'0.6'
p279
sg5
F100000.0
sg6
S'501.187'
p280
sg8
F1363428.0
ssS'./SimFiles/FarFieldPointSource_1.000MeV_Cos0.5.inc1.id1.sim'
p281
(dp282
g3
S'0.5'
p283
sg5
F100000.0
sg6
S'1.000'
p284
sg8
F5464481.0
ssS'./SimFiles/FarFieldPointSource_5.011MeV_Cos0.6.inc1.id1.sim'
p285
(dp286
g3
S'0.6'
p287
sg5
F100000.0
sg6
S'5.011'
p288
sg8
F4373034.0
ssS'./SimFiles/FarFieldPointSource_5011.872MeV_Cos0.5.inc1.id1.sim'
p289
(dp290
g3
S'0.5'
p291
sg5
F100000.0
sg6
S'5011.872'
p292
sg8
F1144023.0
ssS'./SimFiles/FarFieldPointSource_5011.872MeV_Cos0.8.inc1.id1.sim'
p293
(dp294
g3
S'0.8'
p295
sg5
F100000.0
sg6
S'5011.872'
p296
sg8
F991789.0
ssS'./SimFiles/FarFieldPointSource_31.622MeV_Cos0.6.inc1.id1.sim'
p297
(dp298
g3
S'0.6'
p299
sg5
F100000.0
sg6
S'31.622'
p300
sg8
F2813948.0
ssS'./SimFiles/FarFieldPointSource_5.011MeV_Cos0.7.inc1.id1.sim'
p301
(dp302
g3
S'0.7'
p303
sg5
F100000.0
sg6
S'5.011'
p304
sg8
F4285895.0
ssS'./SimFiles/FarFieldPointSource_0.501MeV_Cos0.9.inc1.id1.sim'
p305
(dp306
g3
S'0.9'
p307
sg5
F100000.0
sg6
S'0.501'
p308
sg8
F5252183.0
ssS'./SimFiles/FarFieldPointSource_158.489MeV_Cos0.9.inc1.id1.sim'
p309
(dp310
g3
S'0.9'
p311
sg5
F100000.0
sg6
S'158.489'
p312
sg8
F1838296.0
ssS'./SimFiles/FarFieldPointSource_501.187MeV_Cos0.7.inc1.id1.sim'
p313
(dp314
g3
S'0.7'
p315
sg5
F100000.0
sg6
S'501.187'
p316
sg8
F1345459.0
ssS'./SimFiles/FarFieldPointSource_0.501MeV_Cos0.6.inc1.id1.sim'
p317
(dp318
g3
S'0.6'
p319
sg5
F100000.0
sg6
S'0.501'
p320
sg8
F6105778.0
ssS'./SimFiles/FarFieldPointSource_158.489MeV_Cos0.6.inc1.id1.sim'
p321
(dp322
g3
S'0.6'
p323
sg5
F100000.0
sg6
S'158.489'
p324
sg8
F1732127.0
ssS'./SimFiles/FarFieldPointSource_501.187MeV_Cos0.9.inc1.id1.sim'
p325
(dp326
g3
S'0.9'
p327
sg5
F100000.0
sg6
S'501.187'
p328
sg8
F1373762.0
ssS'./SimFiles/FarFieldPointSource_1.584MeV_Cos0.9.inc1.id1.sim'
p329
(dp330
g3
S'0.9'
p331
sg5
F100000.0
sg6
S'1.584'
p332
sg8
F4401683.0
ssS'./SimFiles/FarFieldPointSource_0.316MeV_Cos0.5.inc1.id1.sim'
p333
(dp334
g3
S'0.5'
p335
sg5
F100000.0
sg6
S'0.316'
p336
sg8
F6323363.0
ssS'./SimFiles/FarFieldPointSource_0.501MeV_Cos0.5.inc1.id1.sim'
p337
(dp338
g3
S'0.5'
p339
sg5
F100000.0
sg6
S'0.501'
p340
sg8
F6366374.0
ssS'./SimFiles/FarFieldPointSource_316.227MeV_Cos0.7.inc1.id1.sim'
p341
(dp342
g3
S'0.7'
p343
sg5
F100000.0
sg6
S'316.227'
p344
sg8
F1489546.0
ssS'./SimFiles/FarFieldPointSource_0.158MeV_Cos0.7.inc1.id1.sim'
p345
(dp346
g3
S'0.7'
p347
sg5
F100000.0
sg6
S'0.158'
p348
sg8
F5053765.0
ssS'./SimFiles/FarFieldPointSource_5.011MeV_Cos0.8.inc1.id1.sim'
p349
(dp350
g3
S'0.8'
p351
sg5
F100000.0
sg6
S'5.011'
p352
sg8
F4228202.0
ssS'./SimFiles/FarFieldPointSource_0.158MeV_Cos0.8.inc1.id1.sim'
p353
(dp354
g3
S'0.8'
p355
sg5
F100000.0
sg6
S'0.158'
p356
sg8
F4717447.0
ssS'./SimFiles/FarFieldPointSource_0.158MeV_Cos0.5.inc1.id1.sim'
p357
(dp358
g3
S'0.5'
p359
sg5
F100000.0
sg6
S'0.158'
p360
sg8
F5768077.0
ssS'./SimFiles/FarFieldPointSource_0.316MeV_Cos0.8.inc1.id1.sim'
p361
(dp362
g3
S'0.8'
p363
sg5
F100000.0
sg6
S'0.316'
p364
sg8
F5361173.0
ssS'./SimFiles/FarFieldPointSource_15.848MeV_Cos1.0.inc1.id1.sim'
p365
(dp366
g3
S'1.0'
p367
sg5
F100000.0
sg6
S'15.848'
p368
sg8
F3718555.0
ssS'./SimFiles/FarFieldPointSource_158.489MeV_Cos0.5.inc1.id1.sim'
p369
(dp370
g3
S'0.5'
p371
sg5
F100000.0
sg6
S'158.489'
p372
sg8
F1731904.0
ssS'./SimFiles/FarFieldPointSource_3.162MeV_Cos0.7.inc1.id1.sim'
p373
(dp374
g3
S'0.7'
p375
sg5
F100000.0
sg6
S'3.162'
p376
sg8
F4476678.0
ssS'./SimFiles/FarFieldPointSource_50.118MeV_Cos1.0.inc1.id1.sim'
p377
(dp378
g3
S'1.0'
p379
sg5
F100000.0
sg6
S'50.118'
p380
sg8
F2769883.0
ssS'./SimFiles/FarFieldPointSource_31.622MeV_Cos1.0.inc1.id1.sim'
p381
(dp382
g3
S'1.0'
p383
sg5
F100000.0
sg6
S'31.622'
p384
sg8
F3129185.0
ssS'./SimFiles/FarFieldPointSource_31.622MeV_Cos0.5.inc1.id1.sim'
p385
(dp386
g3
S'0.5'
p387
sg5
F100000.0
sg6
S'31.622'
p388
sg8
F2813477.0
ssS'./SimFiles/FarFieldPointSource_3162.277MeV_Cos0.6.inc1.id1.sim'
p389
(dp390
g3
S'0.6'
p391
sg5
F100000.0
sg6
S'3162.277'
p392
sg8
F1125538.0
ssS'./SimFiles/FarFieldPointSource_1584.893MeV_Cos0.6.inc1.id1.sim'
p393
(dp394
g3
S'0.6'
p395
sg5
F100000.0
sg6
S'1584.893'
p396
sg8
F1175257.0
ssS'./SimFiles/FarFieldPointSource_158.489MeV_Cos0.8.inc1.id1.sim'
p397
(dp398
g3
S'0.8'
p399
sg5
F100000.0
sg6
S'158.489'
p400
sg8
F1782725.0
ssS'./SimFiles/FarFieldPointSource_50.118MeV_Cos0.9.inc1.id1.sim'
p401
(dp402
g3
S'0.9'
p403
sg5
F100000.0
sg6
S'50.118'
p404
sg8
F2549966.0
ssS'./SimFiles/FarFieldPointSource_0.501MeV_Cos0.7.inc1.id1.sim'
p405
(dp406
g3
S'0.7'
p407
sg5
F100000.0
sg6
S'0.501'
p408
sg8
F5788264.0
ssS'./SimFiles/FarFieldPointSource_316.227MeV_Cos0.5.inc1.id1.sim'
p409
(dp410
g3
S'0.5'
p411
sg5
F100000.0
sg6
S'316.227'
p412
sg8
F1495113.0
ssS'./SimFiles/FarFieldPointSource_316.227MeV_Cos0.8.inc1.id1.sim'
p413
(dp414
g3
S'0.8'
p415
sg5
F100000.0
sg6
S'316.227'
p416
sg8
F1498387.0
ssS'./SimFiles/FarFieldPointSource_3.162MeV_Cos1.0.inc1.id1.sim'
p417
(dp418
g3
S'1.0'
p419
sg5
F100000.0
sg6
S'3.162'
p420
sg8
F4336205.0
ssS'./SimFiles/FarFieldPointSource_1584.893MeV_Cos0.7.inc1.id1.sim'
p421
(dp422
g3
S'0.7'
p423
sg5
F100000.0
sg6
S'1584.893'
p424
sg8
F1143498.0
ssS'./SimFiles/FarFieldPointSource_5.011MeV_Cos0.9.inc1.id1.sim'
p425
(dp426
g3
S'0.9'
p427
sg5
F100000.0
sg6
S'5.011'
p428
sg8
F4166147.0
ssS'./SimFiles/FarFieldPointSource_0.501MeV_Cos1.0.inc1.id1.sim'
p429
(dp430
g3
S'1.0'
p431
sg5
F100000.0
sg6
S'0.501'
p432
sg8
F5236216.0
ssS'./SimFiles/FarFieldPointSource_3.162MeV_Cos0.5.inc1.id1.sim'
p433
(dp434
g3
S'0.5'
p435
sg5
F100000.0
sg6
S'3.162'
p436
sg8
F4663715.0
ssS'./SimFiles/FarFieldPointSource_0.158MeV_Cos0.9.inc1.id1.sim'
p437
(dp438
g3
S'0.9'
p439
sg5
F100000.0
sg6
S'0.158'
p440
sg8
F4439585.0
ssS'./SimFiles/FarFieldPointSource_501.187MeV_Cos0.8.inc1.id1.sim'
p441
(dp442
g3
S'0.8'
p443
sg5
F100000.0
sg6
S'501.187'
p444
sg8
F1353346.0
ssS'./SimFiles/FarFieldPointSource_0.158MeV_Cos1.0.inc1.id1.sim'
p445
(dp446
g3
S'1.0'
p447
sg5
F100000.0
sg6
S'0.158'
p448
sg8
F4453127.0
ssS'./SimFiles/FarFieldPointSource_1584.893MeV_Cos0.9.inc1.id1.sim'
p449
(dp450
g3
S'0.9'
p451
sg5
F100000.0
sg6
S'1584.893'
p452
sg8
F1110194.0
ssS'./SimFiles/FarFieldPointSource_3162.277MeV_Cos0.8.inc1.id1.sim'
p453
(dp454
g3
S'0.8'
p455
sg5
F100000.0
sg6
S'3162.277'
p456
sg8
F1028915.0
ssS'./SimFiles/FarFieldPointSource_50.118MeV_Cos0.5.inc1.id1.sim'
p457
(dp458
g3
S'0.5'
p459
sg5
F100000.0
sg6
S'50.118'
p460
sg8
F2423861.0
ss.