(dp0
S'SimFiles/FarFieldPointSource_1584.893MeV_Cos0.7.inc1.id1.sim'
p1
(dp2
S'Cos'
p3
S'0.7'
p4
sS'numberOfTriggers'
p5
F100000.0
sS'MeV'
p6
S'1584.893'
p7
sS'numberOfSimulatedEvents'
p8
F4212066.0
ssS'SimFiles/FarFieldPointSource_316.227MeV_Cos0.7.inc1.id1.sim'
p9
(dp10
g3
S'0.7'
p11
sg5
F100000.0
sg6
S'316.227'
p12
sg8
F5293478.0
ssS'SimFiles/FarFieldPointSource_15.848MeV_Cos0.9.inc1.id1.sim'
p13
(dp14
g3
S'0.9'
p15
sg5
F100000.0
sg6
S'15.848'
p16
sg8
F12215748.0
ssS'SimFiles/FarFieldPointSource_10.000MeV_Cos0.8.inc1.id1.sim'
p17
(dp18
g3
S'0.8'
p19
sg5
F100000.0
sg6
S'10.000'
p20
sg8
F13476391.0
ssS'SimFiles/FarFieldPointSource_1.000MeV_Cos0.6.inc1.id1.sim'
p21
(dp22
g3
S'0.6'
p23
sg5
F100000.0
sg6
S'1.000'
p24
sg8
F18245585.0
ssS'SimFiles/FarFieldPointSource_31.622MeV_Cos0.5.inc1.id1.sim'
p25
(dp26
g3
S'0.5'
p27
sg5
F100000.0
sg6
S'31.622'
p28
sg8
F9676163.0
ssS'SimFiles/FarFieldPointSource_100.000MeV_Cos1.0.inc1.id1.sim'
p29
(dp30
g3
S'1.0'
p31
sg5
F100000.0
sg6
S'100.000'
p32
sg8
F7713923.0
ssS'SimFiles/FarFieldPointSource_31.622MeV_Cos0.8.inc1.id1.sim'
p33
(dp34
g3
S'0.8'
p35
sg5
F100000.0
sg6
S'31.622'
p36
sg8
F9680457.0
ssS'SimFiles/FarFieldPointSource_316.227MeV_Cos0.6.inc1.id1.sim'
p37
(dp38
g3
S'0.6'
p39
sg5
F100000.0
sg6
S'316.227'
p40
sg8
F5320345.0
ssS'SimFiles/FarFieldPointSource_10.000MeV_Cos0.6.inc1.id1.sim'
p41
(dp42
g3
S'0.6'
p43
sg5
F100000.0
sg6
S'10.000'
p44
sg8
F13786333.0
ssS'SimFiles/FarFieldPointSource_100.000MeV_Cos0.7.inc1.id1.sim'
p45
(dp46
g3
S'0.7'
p47
sg5
F100000.0
sg6
S'100.000'
p48
sg8
F6884335.0
ssS'SimFiles/FarFieldPointSource_0.158MeV_Cos1.0.inc1.id1.sim'
p49
(dp50
g3
S'1.0'
p51
sg5
F100000.0
sg6
S'0.158'
p52
sg8
F15691653.0
ssS'SimFiles/FarFieldPointSource_5011.872MeV_Cos0.5.inc1.id1.sim'
p53
(dp54
g3
S'0.5'
p55
sg5
F100000.0
sg6
S'5011.872'
p56
sg8
F4291438.0
ssS'SimFiles/FarFieldPointSource_1000.000MeV_Cos0.5.inc1.id1.sim'
p57
(dp58
g3
S'0.5'
p59
sg5
F100000.0
sg6
S'1000.000'
p60
sg8
F4761057.0
ssS'SimFiles/FarFieldPointSource_0.316MeV_Cos0.7.inc1.id1.sim'
p61
(dp62
g3
S'0.7'
p63
sg5
F100000.0
sg6
S'0.316'
p64
sg8
F19234782.0
ssS'SimFiles/FarFieldPointSource_5.011MeV_Cos0.8.inc1.id1.sim'
p65
(dp66
g3
S'0.8'
p67
sg5
F100000.0
sg6
S'5.011'
p68
sg8
F15310482.0
ssS'SimFiles/FarFieldPointSource_3162.277MeV_Cos0.8.inc1.id1.sim'
p69
(dp70
g3
S'0.8'
p71
sg5
F100000.0
sg6
S'3162.277'
p72
sg8
F3863167.0
ssS'SimFiles/FarFieldPointSource_316.227MeV_Cos0.5.inc1.id1.sim'
p73
(dp74
g3
S'0.5'
p75
sg5
F100000.0
sg6
S'316.227'
p76
sg8
F5444671.0
ssS'SimFiles/FarFieldPointSource_31.622MeV_Cos0.6.inc1.id1.sim'
p77
(dp78
g3
S'0.6'
p79
sg5
F100000.0
sg6
S'31.622'
p80
sg8
F9628789.0
ssS'SimFiles/FarFieldPointSource_5.011MeV_Cos0.5.inc1.id1.sim'
p81
(dp82
g3
S'0.5'
p83
sg5
F100000.0
sg6
S'5.011'
p84
sg8
F16100886.0
ssS'SimFiles/FarFieldPointSource_501.187MeV_Cos0.5.inc1.id1.sim'
p85
(dp86
g3
S'0.5'
p87
sg5
F100000.0
sg6
S'501.187'
p88
sg8
F5106074.0
ssS'SimFiles/FarFieldPointSource_501.187MeV_Cos0.8.inc1.id1.sim'
p89
(dp90
g3
S'0.8'
p91
sg5
F100000.0
sg6
S'501.187'
p92
sg8
F4804164.0
ssS'SimFiles/FarFieldPointSource_5011.872MeV_Cos0.8.inc1.id1.sim'
p93
(dp94
g3
S'0.8'
p95
sg5
F100000.0
sg6
S'5011.872'
p96
sg8
F3776946.0
ssS'SimFiles/FarFieldPointSource_15.848MeV_Cos0.7.inc1.id1.sim'
p97
(dp98
g3
S'0.7'
p99
sg5
F100000.0
sg6
S'15.848'
p100
sg8
F11990333.0
ssS'SimFiles/FarFieldPointSource_3.162MeV_Cos0.7.inc1.id1.sim'
p101
(dp102
g3
S'0.7'
p103
sg5
F100000.0
sg6
S'3.162'
p104
sg8
F16354708.0
ssS'SimFiles/FarFieldPointSource_0.501MeV_Cos0.6.inc1.id1.sim'
p105
(dp106
g3
S'0.6'
p107
sg5
F100000.0
sg6
S'0.501'
p108
sg8
F20260785.0
ssS'SimFiles/FarFieldPointSource_1584.893MeV_Cos0.9.inc1.id1.sim'
p109
(dp110
g3
S'0.9'
p111
sg5
F100000.0
sg6
S'1584.893'
p112
sg8
F4052292.0
ssS'SimFiles/FarFieldPointSource_0.316MeV_Cos0.5.inc1.id1.sim'
p113
(dp114
g3
S'0.5'
p115
sg5
F100000.0
sg6
S'0.316'
p116
sg8
F21585074.0
ssS'SimFiles/FarFieldPointSource_5.011MeV_Cos0.6.inc1.id1.sim'
p117
(dp118
g3
S'0.6'
p119
sg5
F100000.0
sg6
S'5.011'
p120
sg8
F15798119.0
ssS'SimFiles/FarFieldPointSource_0.158MeV_Cos0.8.inc1.id1.sim'
p121
(dp122
g3
S'0.8'
p123
sg5
F100000.0
sg6
S'0.158'
p124
sg8
F16940783.0
ssS'SimFiles/FarFieldPointSource_3162.277MeV_Cos0.6.inc1.id1.sim'
p125
(dp126
g3
S'0.6'
p127
sg5
F100000.0
sg6
S'3162.277'
p128
sg8
F4221939.0
ssS'SimFiles/FarFieldPointSource_100.000MeV_Cos0.6.inc1.id1.sim'
p129
(dp130
g3
S'0.6'
p131
sg5
F100000.0
sg6
S'100.000'
p132
sg8
F6803266.0
ssS'SimFiles/FarFieldPointSource_5.011MeV_Cos1.0.inc1.id1.sim'
p133
(dp134
g3
S'1.0'
p135
sg5
F100000.0
sg6
S'5.011'
p136
sg8
F15802074.0
ssS'SimFiles/FarFieldPointSource_1.584MeV_Cos0.9.inc1.id1.sim'
p137
(dp138
g3
S'0.9'
p139
sg5
F100000.0
sg6
S'1.584'
p140
sg8
F16240666.0
ssS'SimFiles/FarFieldPointSource_3.162MeV_Cos1.0.inc1.id1.sim'
p141
(dp142
g3
S'1.0'
p143
sg5
F100000.0
sg6
S'3.162'
p144
sg8
F16237956.0
ssS'SimFiles/FarFieldPointSource_1000.000MeV_Cos1.0.inc1.id1.sim'
p145
(dp146
g3
S'1.0'
p147
sg5
F100000.0
sg6
S'1000.000'
p148
sg8
F4581345.0
ssS'SimFiles/FarFieldPointSource_0.158MeV_Cos0.5.inc1.id1.sim'
p149
(dp150
g3
S'0.5'
p151
sg5
F100000.0
sg6
S'0.158'
p152
sg8
F20778964.0
ssS'SimFiles/FarFieldPointSource_1.000MeV_Cos1.0.inc1.id1.sim'
p153
(dp154
g3
S'1.0'
p155
sg5
F100000.0
sg6
S'1.000'
p156
sg8
F16471438.0
ssS'SimFiles/FarFieldPointSource_3.162MeV_Cos0.8.inc1.id1.sim'
p157
(dp158
g3
S'0.8'
p159
sg5
F100000.0
sg6
S'3.162'
p160
sg8
F16084749.0
ssS'SimFiles/FarFieldPointSource_1000.000MeV_Cos0.7.inc1.id1.sim'
p161
(dp162
g3
S'0.7'
p163
sg5
F100000.0
sg6
S'1000.000'
p164
sg8
F4420967.0
ssS'SimFiles/FarFieldPointSource_316.227MeV_Cos0.8.inc1.id1.sim'
p165
(dp166
g3
S'0.8'
p167
sg5
F100000.0
sg6
S'316.227'
p168
sg8
F5292532.0
ssS'SimFiles/FarFieldPointSource_501.187MeV_Cos0.9.inc1.id1.sim'
p169
(dp170
g3
S'0.9'
p171
sg5
F100000.0
sg6
S'501.187'
p172
sg8
F4849278.0
ssS'SimFiles/FarFieldPointSource_5011.872MeV_Cos0.6.inc1.id1.sim'
p173
(dp174
g3
S'0.6'
p175
sg5
F100000.0
sg6
S'5011.872'
p176
sg8
F4135722.0
ssS'SimFiles/FarFieldPointSource_0.501MeV_Cos0.9.inc1.id1.sim'
p177
(dp178
g3
S'0.9'
p179
sg5
F100000.0
sg6
S'0.501'
p180
sg8
F17653766.0
ssS'SimFiles/FarFieldPointSource_1.584MeV_Cos0.8.inc1.id1.sim'
p181
(dp182
g3
S'0.8'
p183
sg5
F100000.0
sg6
S'1.584'
p184
sg8
F16492054.0
ssS'SimFiles/FarFieldPointSource_1584.893MeV_Cos0.8.inc1.id1.sim'
p185
(dp186
g3
S'0.8'
p187
sg5
F100000.0
sg6
S'1584.893'
p188
sg8
F4093369.0
ssS'SimFiles/FarFieldPointSource_3.162MeV_Cos0.5.inc1.id1.sim'
p189
(dp190
g3
S'0.5'
p191
sg5
F100000.0
sg6
S'3.162'
p192
sg8
F16936227.0
ssS'SimFiles/FarFieldPointSource_1.000MeV_Cos0.8.inc1.id1.sim'
p193
(dp194
g3
S'0.8'
p195
sg5
F100000.0
sg6
S'1.000'
p196
sg8
F17127590.0
ssS'SimFiles/FarFieldPointSource_1.584MeV_Cos0.7.inc1.id1.sim'
p197
(dp198
g3
S'0.7'
p199
sg5
F100000.0
sg6
S'1.584'
p200
sg8
F16830201.0
ssS'SimFiles/FarFieldPointSource_3162.277MeV_Cos1.0.inc1.id1.sim'
p201
(dp202
g3
S'1.0'
p203
sg5
F100000.0
sg6
S'3162.277'
p204
sg8
F3881322.0
ssS'SimFiles/FarFieldPointSource_158.489MeV_Cos0.7.inc1.id1.sim'
p205
(dp206
g3
S'0.7'
p207
sg5
F100000.0
sg6
S'158.489'
p208
sg8
F6095882.0
ssS'SimFiles/FarFieldPointSource_1.000MeV_Cos0.5.inc1.id1.sim'
p209
(dp210
g3
S'0.5'
p211
sg5
F100000.0
sg6
S'1.000'
p212
sg8
F18845826.0
ssS'SimFiles/FarFieldPointSource_100.000MeV_Cos0.8.inc1.id1.sim'
p213
(dp214
g3
S'0.8'
p215
sg5
F100000.0
sg6
S'100.000'
p216
sg8
F6971058.0
ssS'SimFiles/FarFieldPointSource_10.000MeV_Cos0.5.inc1.id1.sim'
p217
(dp218
g3
S'0.5'
p219
sg5
F100000.0
sg6
S'10.000'
p220
sg8
F13903804.0
ssS'SimFiles/FarFieldPointSource_158.489MeV_Cos1.0.inc1.id1.sim'
p221
(dp222
g3
S'1.0'
p223
sg5
F100000.0
sg6
S'158.489'
p224
sg8
F6820227.0
ssS'SimFiles/FarFieldPointSource_1000.000MeV_Cos0.6.inc1.id1.sim'
p225
(dp226
g3
S'0.6'
p227
sg5
F100000.0
sg6
S'1000.000'
p228
sg8
F4564528.0
ssS'SimFiles/FarFieldPointSource_0.316MeV_Cos0.8.inc1.id1.sim'
p229
(dp230
g3
S'0.8'
p231
sg5
F100000.0
sg6
S'0.316'
p232
sg8
F18257186.0
ssS'SimFiles/FarFieldPointSource_3162.277MeV_Cos0.5.inc1.id1.sim'
p233
(dp234
g3
S'0.5'
p235
sg5
F100000.0
sg6
S'3162.277'
p236
sg8
F4392077.0
ssS'SimFiles/FarFieldPointSource_50.118MeV_Cos0.7.inc1.id1.sim'
p237
(dp238
g3
S'0.7'
p239
sg5
F100000.0
sg6
S'50.118'
p240
sg8
F8375452.0
ssS'SimFiles/FarFieldPointSource_10.000MeV_Cos0.7.inc1.id1.sim'
p241
(dp242
g3
S'0.7'
p243
sg5
F100000.0
sg6
S'10.000'
p244
sg8
F13620226.0
ssS'SimFiles/FarFieldPointSource_1.000MeV_Cos0.9.inc1.id1.sim'
p245
(dp246
g3
S'0.9'
p247
sg5
F100000.0
sg6
S'1.000'
p248
sg8
F16627401.0
ssS'SimFiles/FarFieldPointSource_0.158MeV_Cos0.7.inc1.id1.sim'
p249
(dp250
g3
S'0.7'
p251
sg5
F100000.0
sg6
S'0.158'
p252
sg8
F18024513.0
ssS'SimFiles/FarFieldPointSource_3.162MeV_Cos0.6.inc1.id1.sim'
p253
(dp254
g3
S'0.6'
p255
sg5
F100000.0
sg6
S'3.162'
p256
sg8
F16720006.0
ssS'SimFiles/FarFieldPointSource_1.584MeV_Cos1.0.inc1.id1.sim'
p257
(dp258
g3
S'1.0'
p259
sg5
F100000.0
sg6
S'1.584'
p260
sg8
F16355118.0
ssS'SimFiles/FarFieldPointSource_501.187MeV_Cos0.7.inc1.id1.sim'
p261
(dp262
g3
S'0.7'
p263
sg5
F100000.0
sg6
S'501.187'
p264
sg8
F4848295.0
ssS'SimFiles/FarFieldPointSource_0.501MeV_Cos1.0.inc1.id1.sim'
p265
(dp266
g3
S'1.0'
p267
sg5
F100000.0
sg6
S'0.501'
p268
sg8
F17829109.0
ssS'SimFiles/FarFieldPointSource_1584.893MeV_Cos1.0.inc1.id1.sim'
p269
(dp270
g3
S'1.0'
p271
sg5
F100000.0
sg6
S'1584.893'
p272
sg8
F4268254.0
ssS'SimFiles/FarFieldPointSource_15.848MeV_Cos0.5.inc1.id1.sim'
p273
(dp274
g3
S'0.5'
p275
sg5
F100000.0
sg6
S'15.848'
p276
sg8
F12154364.0
ssS'SimFiles/FarFieldPointSource_158.489MeV_Cos0.5.inc1.id1.sim'
p277
(dp278
g3
S'0.5'
p279
sg5
F100000.0
sg6
S'158.489'
p280
sg8
F6151314.0
ssS'SimFiles/FarFieldPointSource_316.227MeV_Cos1.0.inc1.id1.sim'
p281
(dp282
g3
S'1.0'
p283
sg5
F100000.0
sg6
S'316.227'
p284
sg8
F5771312.0
ssS'SimFiles/FarFieldPointSource_0.158MeV_Cos0.6.inc1.id1.sim'
p285
(dp286
g3
S'0.6'
p287
sg5
F100000.0
sg6
S'0.158'
p288
sg8
F19400480.0
ssS'SimFiles/FarFieldPointSource_158.489MeV_Cos0.9.inc1.id1.sim'
p289
(dp290
g3
S'0.9'
p291
sg5
F100000.0
sg6
S'158.489'
p292
sg8
F6280319.0
ssS'SimFiles/FarFieldPointSource_0.501MeV_Cos0.7.inc1.id1.sim'
p293
(dp294
g3
S'0.7'
p295
sg5
F100000.0
sg6
S'0.501'
p296
sg8
F19373174.0
ssS'SimFiles/FarFieldPointSource_1.584MeV_Cos0.6.inc1.id1.sim'
p297
(dp298
g3
S'0.6'
p299
sg5
F100000.0
sg6
S'1.584'
p300
sg8
F17449373.0
ssS'SimFiles/FarFieldPointSource_50.118MeV_Cos0.8.inc1.id1.sim'
p301
(dp302
g3
S'0.8'
p303
sg5
F100000.0
sg6
S'50.118'
p304
sg8
F8497304.0
ssS'SimFiles/FarFieldPointSource_15.848MeV_Cos0.6.inc1.id1.sim'
p305
(dp306
g3
S'0.6'
p307
sg5
F100000.0
sg6
S'15.848'
p308
sg8
F12092264.0
ssS'SimFiles/FarFieldPointSource_3.162MeV_Cos0.9.inc1.id1.sim'
p309
(dp310
g3
S'0.9'
p311
sg5
F100000.0
sg6
S'3.162'
p312
sg8
F15880695.0
ssS'SimFiles/FarFieldPointSource_0.316MeV_Cos0.9.inc1.id1.sim'
p313
(dp314
g3
S'0.9'
p315
sg5
F100000.0
sg6
S'0.316'
p316
sg8
F17308787.0
ssS'SimFiles/FarFieldPointSource_1000.000MeV_Cos0.9.inc1.id1.sim'
p317
(dp318
g3
S'0.9'
p319
sg5
F100000.0
sg6
S'1000.000'
p320
sg8
F4302908.0
ssS'SimFiles/FarFieldPointSource_3162.277MeV_Cos0.7.inc1.id1.sim'
p321
(dp322
g3
S'0.7'
p323
sg5
F100000.0
sg6
S'3162.277'
p324
sg8
F4033238.0
ssS'SimFiles/FarFieldPointSource_50.118MeV_Cos1.0.inc1.id1.sim'
p325
(dp326
g3
S'1.0'
p327
sg5
F100000.0
sg6
S'50.118'
p328
sg8
F9357154.0
ssS'SimFiles/FarFieldPointSource_1584.893MeV_Cos0.6.inc1.id1.sim'
p329
(dp330
g3
S'0.6'
p331
sg5
F100000.0
sg6
S'1584.893'
p332
sg8
F4411477.0
ssS'SimFiles/FarFieldPointSource_31.622MeV_Cos0.9.inc1.id1.sim'
p333
(dp334
g3
S'0.9'
p335
sg5
F100000.0
sg6
S'31.622'
p336
sg8
F9861101.0
ssS'SimFiles/FarFieldPointSource_158.489MeV_Cos0.6.inc1.id1.sim'
p337
(dp338
g3
S'0.6'
p339
sg5
F100000.0
sg6
S'158.489'
p340
sg8
F6100243.0
ssS'SimFiles/FarFieldPointSource_5011.872MeV_Cos0.9.inc1.id1.sim'
p341
(dp342
g3
S'0.9'
p343
sg5
F100000.0
sg6
S'5011.872'
p344
sg8
F3640356.0
ssS'SimFiles/FarFieldPointSource_501.187MeV_Cos0.6.inc1.id1.sim'
p345
(dp346
g3
S'0.6'
p347
sg5
F100000.0
sg6
S'501.187'
p348
sg8
F4939620.0
ssS'SimFiles/FarFieldPointSource_50.118MeV_Cos0.9.inc1.id1.sim'
p349
(dp350
g3
S'0.9'
p351
sg5
F100000.0
sg6
S'50.118'
p352
sg8
F8623420.0
ssS'SimFiles/FarFieldPointSource_5011.872MeV_Cos0.7.inc1.id1.sim'
p353
(dp354
g3
S'0.7'
p355
sg5
F100000.0
sg6
S'5011.872'
p356
sg8
F3963061.0
ssS'SimFiles/FarFieldPointSource_50.118MeV_Cos0.6.inc1.id1.sim'
p357
(dp358
g3
S'0.6'
p359
sg5
F100000.0
sg6
S'50.118'
p360
sg8
F8330024.0
ssS'SimFiles/FarFieldPointSource_31.622MeV_Cos1.0.inc1.id1.sim'
p361
(dp362
g3
S'1.0'
p363
sg5
F100000.0
sg6
S'31.622'
p364
sg8
F10694553.0
ssS'SimFiles/FarFieldPointSource_158.489MeV_Cos0.8.inc1.id1.sim'
p365
(dp366
g3
S'0.8'
p367
sg5
F100000.0
sg6
S'158.489'
p368
sg8
F6175348.0
ssS'SimFiles/FarFieldPointSource_100.000MeV_Cos0.5.inc1.id1.sim'
p369
(dp370
g3
S'0.5'
p371
sg5
F100000.0
sg6
S'100.000'
p372
sg8
F6833564.0
ssS'SimFiles/FarFieldPointSource_0.501MeV_Cos0.5.inc1.id1.sim'
p373
(dp374
g3
S'0.5'
p375
sg5
F100000.0
sg6
S'0.501'
p376
sg8
F21428621.0
ssS'SimFiles/FarFieldPointSource_1584.893MeV_Cos0.5.inc1.id1.sim'
p377
(dp378
g3
S'0.5'
p379
sg5
F100000.0
sg6
S'1584.893'
p380
sg8
F4639221.0
ssS'SimFiles/FarFieldPointSource_1.584MeV_Cos0.5.inc1.id1.sim'
p381
(dp382
g3
S'0.5'
p383
sg5
F100000.0
sg6
S'1.584'
p384
sg8
F17800341.0
ssS'SimFiles/FarFieldPointSource_0.316MeV_Cos0.6.inc1.id1.sim'
p385
(dp386
g3
S'0.6'
p387
sg5
F100000.0
sg6
S'0.316'
p388
sg8
F20334280.0
ssS'SimFiles/FarFieldPointSource_15.848MeV_Cos0.8.inc1.id1.sim'
p389
(dp390
g3
S'0.8'
p391
sg5
F100000.0
sg6
S'15.848'
p392
sg8
F11994712.0
ssS'SimFiles/FarFieldPointSource_5011.872MeV_Cos1.0.inc1.id1.sim'
p393
(dp394
g3
S'1.0'
p395
sg5
F100000.0
sg6
S'5011.872'
p396
sg8
F3703893.0
ssS'SimFiles/FarFieldPointSource_5.011MeV_Cos0.9.inc1.id1.sim'
p397
(dp398
g3
S'0.9'
p399
sg5
F100000.0
sg6
S'5.011'
p400
sg8
F15238943.0
ssS'SimFiles/FarFieldPointSource_10.000MeV_Cos1.0.inc1.id1.sim'
p401
(dp402
g3
S'1.0'
p403
sg5
F100000.0
sg6
S'10.000'
p404
sg8
F14345368.0
ssS'SimFiles/FarFieldPointSource_50.118MeV_Cos0.5.inc1.id1.sim'
p405
(dp406
g3
S'0.5'
p407
sg5
F100000.0
sg6
S'50.118'
p408
sg8
F8386548.0
ssS'SimFiles/FarFieldPointSource_3162.277MeV_Cos0.9.inc1.id1.sim'
p409
(dp410
g3
S'0.9'
p411
sg5
F100000.0
sg6
S'3162.277'
p412
sg8
F3743905.0
ssS'SimFiles/FarFieldPointSource_1000.000MeV_Cos0.8.inc1.id1.sim'
p413
(dp414
g3
S'0.8'
p415
sg5
F100000.0
sg6
S'1000.000'
p416
sg8
F4339203.0
ssS'SimFiles/FarFieldPointSource_0.158MeV_Cos0.9.inc1.id1.sim'
p417
(dp418
g3
S'0.9'
p419
sg5
F100000.0
sg6
S'0.158'
p420
sg8
F15741883.0
ssS'SimFiles/FarFieldPointSource_501.187MeV_Cos1.0.inc1.id1.sim'
p421
(dp422
g3
S'1.0'
p423
sg5
F100000.0
sg6
S'501.187'
p424
sg8
F5221807.0
ssS'SimFiles/FarFieldPointSource_100.000MeV_Cos0.9.inc1.id1.sim'
p425
(dp426
g3
S'0.9'
p427
sg5
F100000.0
sg6
S'100.000'
p428
sg8
F7087354.0
ssS'SimFiles/FarFieldPointSource_31.622MeV_Cos0.7.inc1.id1.sim'
p429
(dp430
g3
S'0.7'
p431
sg5
F100000.0
sg6
S'31.622'
p432
sg8
F9680314.0
ssS'SimFiles/FarFieldPointSource_316.227MeV_Cos0.9.inc1.id1.sim'
p433
(dp434
g3
S'0.9'
p435
sg5
F100000.0
sg6
S'316.227'
p436
sg8
F5328059.0
ssS'SimFiles/FarFieldPointSource_0.501MeV_Cos0.8.inc1.id1.sim'
p437
(dp438
g3
S'0.8'
p439
sg5
F100000.0
sg6
S'0.501'
p440
sg8
F18468474.0
ssS'SimFiles/FarFieldPointSource_1.000MeV_Cos0.7.inc1.id1.sim'
p441
(dp442
g3
S'0.7'
p443
sg5
F100000.0
sg6
S'1.000'
p444
sg8
F17573779.0
ssS'SimFiles/FarFieldPointSource_10.000MeV_Cos0.9.inc1.id1.sim'
p445
(dp446
g3
S'0.9'
p447
sg5
F100000.0
sg6
S'10.000'
p448
sg8
F13592333.0
ssS'SimFiles/FarFieldPointSource_15.848MeV_Cos1.0.inc1.id1.sim'
p449
(dp450
g3
S'1.0'
p451
sg5
F100000.0
sg6
S'15.848'
p452
sg8
F13038539.0
ssS'SimFiles/FarFieldPointSource_0.316MeV_Cos1.0.inc1.id1.sim'
p453
(dp454
g3
S'1.0'
p455
sg5
F100000.0
sg6
S'0.316'
p456
sg8
F17552024.0
ssS'SimFiles/FarFieldPointSource_5.011MeV_Cos0.7.inc1.id1.sim'
p457
(dp458
g3
S'0.7'
p459
sg5
F100000.0
sg6
S'5.011'
p460
sg8
F15590132.0
ss.