(dp0
S'./FarFieldPointSource_5011.872MeV_Cos0.5.inc1.id1.sim'
p1
(dp2
S'Cos'
p3
S'0.5'
p4
sS'numberOfTriggers'
p5
F84625.0
sS'MeV'
p6
S'5011.872'
p7
sS'numberOfSimulatedEvents'
p8
F4351246.0
ssS'./FarFieldPointSource_50.118MeV_Cos0.6.inc1.id1.sim'
p9
(dp10
g3
S'0.6'
p11
sg5
F100000.0
sg6
S'50.118'
p12
sg8
F10009874.0
ssS'./FarFieldPointSource_3162.277MeV_Cos0.6.inc1.id1.sim'
p13
(dp14
g3
S'0.6'
p15
sg5
F100000.0
sg6
S'3162.277'
p16
sg8
F4903540.0
ssS'./FarFieldPointSource_0.501MeV_Cos0.8.inc1.id1.sim'
p17
(dp18
g3
S'0.8'
p19
sg5
F100000.0
sg6
S'0.501'
p20
sg8
F42305458.0
ssS'./FarFieldPointSource_10.000MeV_Cos1.0.inc1.id1.sim'
p21
(dp22
g3
S'1.0'
p23
sg5
F100000.0
sg6
S'10.000'
p24
sg8
F19315078.0
ssS'./FarFieldPointSource_31.622MeV_Cos1.0.inc1.id1.sim'
p25
(dp26
g3
S'1.0'
p27
sg5
F100000.0
sg6
S'31.622'
p28
sg8
F12348135.0
ssS'./FarFieldPointSource_31.622MeV_Cos0.8.inc1.id1.sim'
p29
(dp30
g3
S'0.8'
p31
sg5
F100000.0
sg6
S'31.622'
p32
sg8
F11552336.0
ssS'./FarFieldPointSource_0.501MeV_Cos0.9.inc1.id1.sim'
p33
(dp34
g3
S'0.9'
p35
sg5
F100000.0
sg6
S'0.501'
p36
sg8
F40801554.0
ssS'./FarFieldPointSource_5.011MeV_Cos0.7.inc1.id1.sim'
p37
(dp38
g3
S'0.7'
p39
sg5
F100000.0
sg6
S'5.011'
p40
sg8
F26835722.0
ssS'./FarFieldPointSource_1584.893MeV_Cos0.5.inc1.id1.sim'
p41
(dp42
g3
S'0.5'
p43
sg5
F100000.0
sg6
S'1584.893'
p44
sg8
F5495383.0
ssS'./FarFieldPointSource_3162.277MeV_Cos1.0.inc1.id1.sim'
p45
(dp46
g3
S'1.0'
p47
sg5
F100000.0
sg6
S'3162.277'
p48
sg8
F4404864.0
ssS'./FarFieldPointSource_5011.872MeV_Cos0.7.inc1.id1.sim'
p49
(dp50
g3
S'0.7'
p51
sg5
F100000.0
sg6
S'5011.872'
p52
sg8
F4478434.0
ssS'./FarFieldPointSource_100.000MeV_Cos0.9.inc1.id1.sim'
p53
(dp54
g3
S'0.9'
p55
sg5
F100000.0
sg6
S'100.000'
p56
sg8
F8183010.0
ssS'./FarFieldPointSource_1584.893MeV_Cos0.8.inc1.id1.sim'
p57
(dp58
g3
S'0.8'
p59
sg5
F100000.0
sg6
S'1584.893'
p60
sg8
F4673717.0
ssS'./FarFieldPointSource_1.000MeV_Cos1.0.inc1.id1.sim'
p61
(dp62
g3
S'1.0'
p63
sg5
F100000.0
sg6
S'1.000'
p64
sg8
F38329661.0
ssS'./FarFieldPointSource_10000.000MeV_Cos0.5.inc1.id1.sim'
p65
(dp66
g3
S'0.5'
p67
sg5
F100000.0
sg6
S'10000.000'
p68
sg8
F4983259.0
ssS'./FarFieldPointSource_5.011MeV_Cos1.0.inc1.id1.sim'
p69
(dp70
g3
S'1.0'
p71
sg5
F100000.0
sg6
S'5.011'
p72
sg8
F25592805.0
ssS'./FarFieldPointSource_158.489MeV_Cos0.9.inc1.id1.sim'
p73
(dp74
g3
S'0.9'
p75
sg5
F100000.0
sg6
S'158.489'
p76
sg8
F7264917.0
ssS'./FarFieldPointSource_0.158MeV_Cos0.5.inc1.id1.sim'
p77
(dp78
g3
S'0.5'
p79
sg5
F100000.0
sg6
S'0.158'
p80
sg8
F61255066.0
ssS'./FarFieldPointSource_1584.893MeV_Cos1.0.inc1.id1.sim'
p81
(dp82
g3
S'1.0'
p83
sg5
F100000.0
sg6
S'1584.893'
p84
sg8
F4872500.0
ssS'./FarFieldPointSource_1000.000MeV_Cos0.8.inc1.id1.sim'
p85
(dp86
g3
S'0.8'
p87
sg5
F100000.0
sg6
S'1000.000'
p88
sg8
F4987247.0
ssS'./FarFieldPointSource_50.118MeV_Cos0.8.inc1.id1.sim'
p89
(dp90
g3
S'0.8'
p91
sg5
F100000.0
sg6
S'50.118'
p92
sg8
F9895497.0
ssS'./FarFieldPointSource_0.501MeV_Cos0.6.inc1.id1.sim'
p93
(dp94
g3
S'0.6'
p95
sg5
F100000.0
sg6
S'0.501'
p96
sg8
F44782139.0
ssS'./FarFieldPointSource_1.584MeV_Cos0.7.inc1.id1.sim'
p97
(dp98
g3
S'0.7'
p99
sg5
F100000.0
sg6
S'1.584'
p100
sg8
F36171281.0
ssS'./FarFieldPointSource_0.316MeV_Cos0.9.inc1.id1.sim'
p101
(dp102
g3
S'0.9'
p103
sg5
F100000.0
sg6
S'0.316'
p104
sg8
F42615781.0
ssS'./FarFieldPointSource_3.162MeV_Cos0.6.inc1.id1.sim'
p105
(dp106
g3
S'0.6'
p107
sg5
F100000.0
sg6
S'3.162'
p108
sg8
F32035048.0
ssS'./FarFieldPointSource_5.011MeV_Cos0.9.inc1.id1.sim'
p109
(dp110
g3
S'0.9'
p111
sg5
F100000.0
sg6
S'5.011'
p112
sg8
F25070564.0
ssS'./FarFieldPointSource_3.162MeV_Cos0.7.inc1.id1.sim'
p113
(dp114
g3
S'0.7'
p115
sg5
F100000.0
sg6
S'3.162'
p116
sg8
F30985303.0
ssS'./FarFieldPointSource_158.489MeV_Cos0.7.inc1.id1.sim'
p117
(dp118
g3
S'0.7'
p119
sg5
F100000.0
sg6
S'158.489'
p120
sg8
F7064519.0
ssS'./FarFieldPointSource_1584.893MeV_Cos0.6.inc1.id1.sim'
p121
(dp122
g3
S'0.6'
p123
sg5
F100000.0
sg6
S'1584.893'
p124
sg8
F5121789.0
ssS'./FarFieldPointSource_31.622MeV_Cos0.5.inc1.id1.sim'
p125
(dp126
g3
S'0.5'
p127
sg5
F100000.0
sg6
S'31.622'
p128
sg8
F12250504.0
ssS'./FarFieldPointSource_501.187MeV_Cos0.6.inc1.id1.sim'
p129
(dp130
g3
S'0.6'
p131
sg5
F100000.0
sg6
S'501.187'
p132
sg8
F5817372.0
ssS'./FarFieldPointSource_15.848MeV_Cos0.8.inc1.id1.sim'
p133
(dp134
g3
S'0.8'
p135
sg5
F100000.0
sg6
S'15.848'
p136
sg8
F15330557.0
ssS'./FarFieldPointSource_100.000MeV_Cos0.8.inc1.id1.sim'
p137
(dp138
g3
S'0.8'
p139
sg5
F100000.0
sg6
S'100.000'
p140
sg8
F8037119.0
ssS'./FarFieldPointSource_158.489MeV_Cos0.8.inc1.id1.sim'
p141
(dp142
g3
S'0.8'
p143
sg5
F100000.0
sg6
S'158.489'
p144
sg8
F7096909.0
ssS'./FarFieldPointSource_501.187MeV_Cos0.9.inc1.id1.sim'
p145
(dp146
g3
S'0.9'
p147
sg5
F100000.0
sg6
S'501.187'
p148
sg8
F5587552.0
ssS'./FarFieldPointSource_3162.277MeV_Cos0.5.inc1.id1.sim'
p149
(dp150
g3
S'0.5'
p151
sg5
F100000.0
sg6
S'3162.277'
p152
sg8
F5279951.0
ssS'./FarFieldPointSource_3162.277MeV_Cos0.8.inc1.id1.sim'
p153
(dp154
g3
S'0.8'
p155
sg5
F100000.0
sg6
S'3162.277'
p156
sg8
F4376947.0
ssS'./FarFieldPointSource_158.489MeV_Cos0.5.inc1.id1.sim'
p157
(dp158
g3
S'0.5'
p159
sg5
F100000.0
sg6
S'158.489'
p160
sg8
F7411566.0
ssS'./FarFieldPointSource_0.501MeV_Cos0.7.inc1.id1.sim'
p161
(dp162
g3
S'0.7'
p163
sg5
F100000.0
sg6
S'0.501'
p164
sg8
F43784728.0
ssS'./FarFieldPointSource_3.162MeV_Cos1.0.inc1.id1.sim'
p165
(dp166
g3
S'1.0'
p167
sg5
F100000.0
sg6
S'3.162'
p168
sg8
F29230465.0
ssS'./FarFieldPointSource_1.000MeV_Cos0.7.inc1.id1.sim'
p169
(dp170
g3
S'0.7'
p171
sg5
F100000.0
sg6
S'1.000'
p172
sg8
F39137987.0
ssS'./FarFieldPointSource_1.584MeV_Cos0.9.inc1.id1.sim'
p173
(dp174
g3
S'0.9'
p175
sg5
F100000.0
sg6
S'1.584'
p176
sg8
F34110274.0
ssS'./FarFieldPointSource_1.584MeV_Cos0.5.inc1.id1.sim'
p177
(dp178
g3
S'0.5'
p179
sg5
F100000.0
sg6
S'1.584'
p180
sg8
F38023310.0
ssS'./FarFieldPointSource_100.000MeV_Cos0.7.inc1.id1.sim'
p181
(dp182
g3
S'0.7'
p183
sg5
F100000.0
sg6
S'100.000'
p184
sg8
F7956999.0
ssS'./FarFieldPointSource_15.848MeV_Cos0.7.inc1.id1.sim'
p185
(dp186
g3
S'0.7'
p187
sg5
F100000.0
sg6
S'15.848'
p188
sg8
F15758705.0
ssS'./FarFieldPointSource_5.011MeV_Cos0.5.inc1.id1.sim'
p189
(dp190
g3
S'0.5'
p191
sg5
F100000.0
sg6
S'5.011'
p192
sg8
F29040527.0
ssS'./FarFieldPointSource_0.158MeV_Cos0.6.inc1.id1.sim'
p193
(dp194
g3
S'0.6'
p195
sg5
F100000.0
sg6
S'0.158'
p196
sg8
F59059550.0
ssS'./FarFieldPointSource_501.187MeV_Cos0.7.inc1.id1.sim'
p197
(dp198
g3
S'0.7'
p199
sg5
F100000.0
sg6
S'501.187'
p200
sg8
F5626236.0
ssS'./FarFieldPointSource_100.000MeV_Cos0.5.inc1.id1.sim'
p201
(dp202
g3
S'0.5'
p203
sg5
F100000.0
sg6
S'100.000'
p204
sg8
F8229534.0
ssS'./FarFieldPointSource_10.000MeV_Cos0.9.inc1.id1.sim'
p205
(dp206
g3
S'0.9'
p207
sg5
F100000.0
sg6
S'10.000'
p208
sg8
F18744523.0
ssS'./FarFieldPointSource_5011.872MeV_Cos0.9.inc1.id1.sim'
p209
(dp210
g3
S'0.9'
p211
sg5
F100000.0
sg6
S'5011.872'
p212
sg8
F4133983.0
ssS'./FarFieldPointSource_1000.000MeV_Cos0.5.inc1.id1.sim'
p213
(dp214
g3
S'0.5'
p215
sg5
F100000.0
sg6
S'1000.000'
p216
sg8
F5707347.0
ssS'./FarFieldPointSource_0.316MeV_Cos0.8.inc1.id1.sim'
p217
(dp218
g3
S'0.8'
p219
sg5
F100000.0
sg6
S'0.316'
p220
sg8
F44848955.0
ssS'./FarFieldPointSource_1000.000MeV_Cos0.9.inc1.id1.sim'
p221
(dp222
g3
S'0.9'
p223
sg5
F100000.0
sg6
S'1000.000'
p224
sg8
F4978515.0
ssS'./FarFieldPointSource_0.158MeV_Cos0.8.inc1.id1.sim'
p225
(dp226
g3
S'0.8'
p227
sg5
F100000.0
sg6
S'0.158'
p228
sg8
F53699787.0
ssS'./FarFieldPointSource_0.158MeV_Cos0.9.inc1.id1.sim'
p229
(dp230
g3
S'0.9'
p231
sg5
F100000.0
sg6
S'0.158'
p232
sg8
F50241687.0
ssS'./FarFieldPointSource_1.000MeV_Cos0.9.inc1.id1.sim'
p233
(dp234
g3
S'0.9'
p235
sg5
F100000.0
sg6
S'1.000'
p236
sg8
F37605346.0
ssS'./FarFieldPointSource_50.118MeV_Cos0.5.inc1.id1.sim'
p237
(dp238
g3
S'0.5'
p239
sg5
F100000.0
sg6
S'50.118'
p240
sg8
F10241510.0
ssS'./FarFieldPointSource_1.584MeV_Cos0.6.inc1.id1.sim'
p241
(dp242
g3
S'0.6'
p243
sg5
F100000.0
sg6
S'1.584'
p244
sg8
F37070422.0
ssS'./FarFieldPointSource_501.187MeV_Cos1.0.inc1.id1.sim'
p245
(dp246
g3
S'1.0'
p247
sg5
F100000.0
sg6
S'501.187'
p248
sg8
F6043254.0
ssS'./FarFieldPointSource_10000.000MeV_Cos0.9.inc1.id1.sim'
p249
(dp250
g3
S'0.9'
p251
sg5
F100000.0
sg6
S'10000.000'
p252
sg8
F3949859.0
ssS'./FarFieldPointSource_1.000MeV_Cos0.6.inc1.id1.sim'
p253
(dp254
g3
S'0.6'
p255
sg5
F100000.0
sg6
S'1.000'
p256
sg8
F39941636.0
ssS'./FarFieldPointSource_316.227MeV_Cos0.9.inc1.id1.sim'
p257
(dp258
g3
S'0.9'
p259
sg5
F100000.0
sg6
S'316.227'
p260
sg8
F6179772.0
ssS'./FarFieldPointSource_501.187MeV_Cos0.8.inc1.id1.sim'
p261
(dp262
g3
S'0.8'
p263
sg5
F100000.0
sg6
S'501.187'
p264
sg8
F5580757.0
ssS'./FarFieldPointSource_0.316MeV_Cos0.5.inc1.id1.sim'
p265
(dp266
g3
S'0.5'
p267
sg5
F100000.0
sg6
S'0.316'
p268
sg8
F50489816.0
ssS'./FarFieldPointSource_100.000MeV_Cos0.6.inc1.id1.sim'
p269
(dp270
g3
S'0.6'
p271
sg5
F100000.0
sg6
S'100.000'
p272
sg8
F8040555.0
ssS'./FarFieldPointSource_0.501MeV_Cos1.0.inc1.id1.sim'
p273
(dp274
g3
S'1.0'
p275
sg5
F100000.0
sg6
S'0.501'
p276
sg8
F41075365.0
ssS'./FarFieldPointSource_10000.000MeV_Cos0.6.inc1.id1.sim'
p277
(dp278
g3
S'0.6'
p279
sg5
F100000.0
sg6
S'10000.000'
p280
sg8
F4669437.0
ssS'./FarFieldPointSource_316.227MeV_Cos0.6.inc1.id1.sim'
p281
(dp282
g3
S'0.6'
p283
sg5
F100000.0
sg6
S'316.227'
p284
sg8
F6213165.0
ssS'./FarFieldPointSource_15.848MeV_Cos0.5.inc1.id1.sim'
p285
(dp286
g3
S'0.5'
p287
sg5
F100000.0
sg6
S'15.848'
p288
sg8
F16851256.0
ssS'./FarFieldPointSource_1.584MeV_Cos0.8.inc1.id1.sim'
p289
(dp290
g3
S'0.8'
p291
sg5
F100000.0
sg6
S'1.584'
p292
sg8
F35226763.0
ssS'./FarFieldPointSource_15.848MeV_Cos0.6.inc1.id1.sim'
p293
(dp294
g3
S'0.6'
p295
sg5
F100000.0
sg6
S'15.848'
p296
sg8
F16240577.0
ssS'./FarFieldPointSource_1.000MeV_Cos0.5.inc1.id1.sim'
p297
(dp298
g3
S'0.5'
p299
sg5
F100000.0
sg6
S'1.000'
p300
sg8
F40573050.0
ssS'./FarFieldPointSource_3.162MeV_Cos0.5.inc1.id1.sim'
p301
(dp302
g3
S'0.5'
p303
sg5
F100000.0
sg6
S'3.162'
p304
sg8
F33186319.0
ssS'./FarFieldPointSource_158.489MeV_Cos0.6.inc1.id1.sim'
p305
(dp306
g3
S'0.6'
p307
sg5
F100000.0
sg6
S'158.489'
p308
sg8
F7145776.0
ssS'./FarFieldPointSource_3.162MeV_Cos0.8.inc1.id1.sim'
p309
(dp310
g3
S'0.8'
p311
sg5
F100000.0
sg6
S'3.162'
p312
sg8
F29825536.0
ssS'./FarFieldPointSource_10.000MeV_Cos0.6.inc1.id1.sim'
p313
(dp314
g3
S'0.6'
p315
sg5
F100000.0
sg6
S'10.000'
p316
sg8
F20277106.0
ssS'./FarFieldPointSource_3162.277MeV_Cos0.7.inc1.id1.sim'
p317
(dp318
g3
S'0.7'
p319
sg5
F100000.0
sg6
S'3162.277'
p320
sg8
F4589756.0
ssS'./FarFieldPointSource_15.848MeV_Cos1.0.inc1.id1.sim'
p321
(dp322
g3
S'1.0'
p323
sg5
F100000.0
sg6
S'15.848'
p324
sg8
F15814130.0
ssS'./FarFieldPointSource_5.011MeV_Cos0.8.inc1.id1.sim'
p325
(dp326
g3
S'0.8'
p327
sg5
F100000.0
sg6
S'5.011'
p328
sg8
F25689933.0
ssS'./FarFieldPointSource_316.227MeV_Cos0.5.inc1.id1.sim'
p329
(dp330
g3
S'0.5'
p331
sg5
F100000.0
sg6
S'316.227'
p332
sg8
F6546329.0
ssS'./FarFieldPointSource_15.848MeV_Cos0.9.inc1.id1.sim'
p333
(dp334
g3
S'0.9'
p335
sg5
F100000.0
sg6
S'15.848'
p336
sg8
F15114291.0
ssS'./FarFieldPointSource_0.501MeV_Cos0.5.inc1.id1.sim'
p337
(dp338
g3
S'0.5'
p339
sg5
F100000.0
sg6
S'0.501'
p340
sg8
F46099943.0
ssS'./FarFieldPointSource_0.316MeV_Cos0.7.inc1.id1.sim'
p341
(dp342
g3
S'0.7'
p343
sg5
F100000.0
sg6
S'0.316'
p344
sg8
F47173051.0
ssS'./FarFieldPointSource_100.000MeV_Cos1.0.inc1.id1.sim'
p345
(dp346
g3
S'1.0'
p347
sg5
F100000.0
sg6
S'100.000'
p348
sg8
F8939734.0
ssS'./FarFieldPointSource_3162.277MeV_Cos0.9.inc1.id1.sim'
p349
(dp350
g3
S'0.9'
p351
sg5
F100000.0
sg6
S'3162.277'
p352
sg8
F4270345.0
ssS'./FarFieldPointSource_316.227MeV_Cos0.8.inc1.id1.sim'
p353
(dp354
g3
S'0.8'
p355
sg5
F100000.0
sg6
S'316.227'
p356
sg8
F6055866.0
ssS'./FarFieldPointSource_10000.000MeV_Cos0.8.inc1.id1.sim'
p357
(dp358
g3
S'0.8'
p359
sg5
F100000.0
sg6
S'10000.000'
p360
sg8
F4089638.0
ssS'./FarFieldPointSource_10.000MeV_Cos0.7.inc1.id1.sim'
p361
(dp362
g3
S'0.7'
p363
sg5
F100000.0
sg6
S'10.000'
p364
sg8
F19655084.0
ssS'./FarFieldPointSource_1000.000MeV_Cos1.0.inc1.id1.sim'
p365
(dp366
g3
S'1.0'
p367
sg5
F100000.0
sg6
S'1000.000'
p368
sg8
F5271096.0
ssS'./FarFieldPointSource_10.000MeV_Cos0.8.inc1.id1.sim'
p369
(dp370
g3
S'0.8'
p371
sg5
F100000.0
sg6
S'10.000'
p372
sg8
F19048451.0
ssS'./FarFieldPointSource_501.187MeV_Cos0.5.inc1.id1.sim'
p373
(dp374
g3
S'0.5'
p375
sg5
F100000.0
sg6
S'501.187'
p376
sg8
F6144859.0
ssS'./FarFieldPointSource_1000.000MeV_Cos0.6.inc1.id1.sim'
p377
(dp378
g3
S'0.6'
p379
sg5
F100000.0
sg6
S'1000.000'
p380
sg8
F5323353.0
ssS'./FarFieldPointSource_50.118MeV_Cos1.0.inc1.id1.sim'
p381
(dp382
g3
S'1.0'
p383
sg5
F100000.0
sg6
S'50.118'
p384
sg8
F10782430.0
ssS'./FarFieldPointSource_10.000MeV_Cos0.5.inc1.id1.sim'
p385
(dp386
g3
S'0.5'
p387
sg5
F100000.0
sg6
S'10.000'
p388
sg8
F21310389.0
ssS'./FarFieldPointSource_10000.000MeV_Cos1.0.inc1.id1.sim'
p389
(dp390
g3
S'1.0'
p391
sg5
F100000.0
sg6
S'10000.000'
p392
sg8
F3923444.0
ssS'./FarFieldPointSource_316.227MeV_Cos1.0.inc1.id1.sim'
p393
(dp394
g3
S'1.0'
p395
sg5
F100000.0
sg6
S'316.227'
p396
sg8
F6672784.0
ssS'./FarFieldPointSource_5011.872MeV_Cos0.8.inc1.id1.sim'
p397
(dp398
g3
S'0.8'
p399
sg5
F100000.0
sg6
S'5011.872'
p400
sg8
F4222028.0
ssS'./FarFieldPointSource_158.489MeV_Cos1.0.inc1.id1.sim'
p401
(dp402
g3
S'1.0'
p403
sg5
F100000.0
sg6
S'158.489'
p404
sg8
F7897144.0
ssS'./FarFieldPointSource_1.584MeV_Cos1.0.inc1.id1.sim'
p405
(dp406
g3
S'1.0'
p407
sg5
F100000.0
sg6
S'1.584'
p408
sg8
F34660873.0
ssS'./FarFieldPointSource_316.227MeV_Cos0.7.inc1.id1.sim'
p409
(dp410
g3
S'0.7'
p411
sg5
F100000.0
sg6
S'316.227'
p412
sg8
F6105352.0
ssS'./FarFieldPointSource_31.622MeV_Cos0.6.inc1.id1.sim'
p413
(dp414
g3
S'0.6'
p415
sg5
F100000.0
sg6
S'31.622'
p416
sg8
F11892006.0
ssS'./FarFieldPointSource_10000.000MeV_Cos0.7.inc1.id1.sim'
p417
(dp418
g3
S'0.7'
p419
sg5
F100000.0
sg6
S'10000.000'
p420
sg8
F4340923.0
ssS'./FarFieldPointSource_50.118MeV_Cos0.7.inc1.id1.sim'
p421
(dp422
g3
S'0.7'
p423
sg5
F100000.0
sg6
S'50.118'
p424
sg8
F9887903.0
ssS'./FarFieldPointSource_1584.893MeV_Cos0.7.inc1.id1.sim'
p425
(dp426
g3
S'0.7'
p427
sg5
F100000.0
sg6
S'1584.893'
p428
sg8
F4845618.0
ssS'./FarFieldPointSource_1.000MeV_Cos0.8.inc1.id1.sim'
p429
(dp430
g3
S'0.8'
p431
sg5
F100000.0
sg6
S'1.000'
p432
sg8
F38364914.0
ssS'./FarFieldPointSource_31.622MeV_Cos0.9.inc1.id1.sim'
p433
(dp434
g3
S'0.9'
p435
sg5
F100000.0
sg6
S'31.622'
p436
sg8
F11578405.0
ssS'./FarFieldPointSource_3.162MeV_Cos0.9.inc1.id1.sim'
p437
(dp438
g3
S'0.9'
p439
sg5
F100000.0
sg6
S'3.162'
p440
sg8
F29038061.0
ssS'./FarFieldPointSource_5011.872MeV_Cos1.0.inc1.id1.sim'
p441
(dp442
g3
S'1.0'
p443
sg5
F100000.0
sg6
S'5011.872'
p444
sg8
F4178409.0
ssS'./FarFieldPointSource_1000.000MeV_Cos0.7.inc1.id1.sim'
p445
(dp446
g3
S'0.7'
p447
sg5
F100000.0
sg6
S'1000.000'
p448
sg8
F5099294.0
ssS'./FarFieldPointSource_0.316MeV_Cos0.6.inc1.id1.sim'
p449
(dp450
g3
S'0.6'
p451
sg5
F100000.0
sg6
S'0.316'
p452
sg8
F49036566.0
ssS'./FarFieldPointSource_0.158MeV_Cos0.7.inc1.id1.sim'
p453
(dp454
g3
S'0.7'
p455
sg5
F100000.0
sg6
S'0.158'
p456
sg8
F56581635.0
ssS'./FarFieldPointSource_5011.872MeV_Cos0.6.inc1.id1.sim'
p457
(dp458
g3
S'0.6'
p459
sg5
F100000.0
sg6
S'5011.872'
p460
sg8
F4808806.0
ssS'./FarFieldPointSource_5.011MeV_Cos0.6.inc1.id1.sim'
p461
(dp462
g3
S'0.6'
p463
sg5
F100000.0
sg6
S'5.011'
p464
sg8
F27779317.0
ssS'./FarFieldPointSource_0.316MeV_Cos1.0.inc1.id1.sim'
p465
(dp466
g3
S'1.0'
p467
sg5
F100000.0
sg6
S'0.316'
p468
sg8
F42301076.0
ssS'./FarFieldPointSource_1584.893MeV_Cos0.9.inc1.id1.sim'
p469
(dp470
g3
S'0.9'
p471
sg5
F100000.0
sg6
S'1584.893'
p472
sg8
F4654027.0
ssS'./FarFieldPointSource_0.158MeV_Cos1.0.inc1.id1.sim'
p473
(dp474
g3
S'1.0'
p475
sg5
F100000.0
sg6
S'0.158'
p476
sg8
F49011931.0
ssS'./FarFieldPointSource_50.118MeV_Cos0.9.inc1.id1.sim'
p477
(dp478
g3
S'0.9'
p479
sg5
F100000.0
sg6
S'50.118'
p480
sg8
F10000615.0
ssS'./FarFieldPointSource_31.622MeV_Cos0.7.inc1.id1.sim'
p481
(dp482
g3
S'0.7'
p483
sg5
F100000.0
sg6
S'31.622'
p484
sg8
F11717815.0
ss.