(dp0
S'./FarFieldPointSource_0.501MeV_Cos0.7.inc1.id1.tra'
p1
(dp2
S'Cos'
p3
S'0.7'
p4
sS'MainTriggerCsI'
p5
I279
sS'MeV'
p6
S'0.501'
p7
sS'MainTriggerCZTSide'
p8
I59264
sS'Not triggered events'
p9
I17544
sS'Number of triggered events'
p10
I82456
sS'Number of vetoed events'
p11
I0
sS'MainTriggerCZT'
p12
I22913
ssS'./FarFieldPointSource_0.158MeV_Cos1.0.inc1.id1.tra'
p13
(dp14
g3
S'1.0'
p15
sS'MainTriggerCsI'
p16
I1
sg6
S'0.158'
p17
sS'MainTriggerCZTSide'
p18
I36726
sS'Not triggered events'
p19
I55386
sS'Number of triggered events'
p20
I44614
sS'Number of vetoed events'
p21
I0
sS'MainTriggerCZT'
p22
I7887
ssS'./FarFieldPointSource_0.316MeV_Cos0.5.inc1.id1.tra'
p23
(dp24
g3
S'0.5'
p25
sS'MainTriggerCsI'
p26
I16
sg6
S'0.316'
p27
sS'MainTriggerCZTSide'
p28
I54147
sS'Not triggered events'
p29
I27493
sS'Number of triggered events'
p30
I72507
sS'Number of vetoed events'
p31
I0
sS'MainTriggerCZT'
p32
I18344
ssS'./FarFieldPointSource_1.584MeV_Cos0.8.inc1.id1.tra'
p33
(dp34
g3
S'0.8'
p35
sS'MainTriggerCsI'
p36
I6781
sg6
S'1.584'
p37
sS'MainTriggerCZTSide'
p38
I45318
sS'MainVetoSide'
p39
I2635
sS'Not triggered events'
p40
I7475
sS'Number of triggered events'
p41
I88095
sS'Number of vetoed events'
p42
I4430
sS'MainTriggerCZT'
p43
I35996
sS'MainVetoTop'
p44
I1795
ssS'./FarFieldPointSource_3162.277MeV_Cos0.8.inc1.id1.tra'
p45
(dp46
g3
S'0.8'
p47
sS'MainTriggerCsI'
p48
I53339
sg6
S'3162.277'
p49
sS'MainTriggerCZTSide'
p50
I1294
sS'MainVetoSide'
p51
I5823
sS'Not triggered events'
p52
I38598
sS'Number of triggered events'
p53
I55205
sS'Number of vetoed events'
p54
I6197
sS'MainTriggerCZT'
p55
I572
sS'MainVetoTop'
p56
I374
ssS'./FarFieldPointSource_5.011MeV_Cos1.0.inc1.id1.tra'
p57
(dp58
g3
S'1.0'
p59
sS'MainTriggerCsI'
p60
I18656
sg6
S'5.011'
p61
sS'MainTriggerCZTSide'
p62
I28696
sS'MainVetoSide'
p63
I2143
sS'Not triggered events'
p64
I5485
sS'Number of triggered events'
p65
I88560
sS'Number of vetoed events'
p66
I5955
sS'MainTriggerCZT'
p67
I41208
sS'MainVetoTop'
p68
I3812
ssS'./FarFieldPointSource_158.489MeV_Cos0.9.inc1.id1.tra'
p69
(dp70
g3
S'0.9'
p71
sS'MainTriggerCsI'
p72
I44010
sg6
S'158.489'
p73
sS'MainTriggerCZTSide'
p74
I13324
sS'MainVetoSide'
p75
I10312
sS'Not triggered events'
p76
I26407
sS'Number of triggered events'
p77
I62146
sS'Number of vetoed events'
p78
I11447
sS'MainTriggerCZT'
p79
I4812
sS'MainVetoTop'
p80
I1135
ssS'./FarFieldPointSource_3162.277MeV_Cos1.0.inc1.id1.tra'
p81
(dp82
g3
S'1.0'
p83
sS'MainTriggerCsI'
p84
I60204
sg6
S'3162.277'
p85
sS'MainTriggerCZTSide'
p86
I236
sS'MainVetoSide'
p87
I3804
sS'Not triggered events'
p88
I35520
sS'Number of triggered events'
p89
I60457
sS'Number of vetoed events'
p90
I4023
sS'MainTriggerCZT'
p91
I17
sS'MainVetoTop'
p92
I219
ssS'./FarFieldPointSource_0.501MeV_Cos0.9.inc1.id1.tra'
p93
(dp94
g3
S'0.9'
p95
sS'MainTriggerCsI'
p96
I343
sg6
S'0.501'
p97
sS'MainTriggerCZTSide'
p98
I59613
sS'Not triggered events'
p99
I16931
sS'Number of triggered events'
p100
I83069
sS'Number of vetoed events'
p101
I0
sS'MainTriggerCZT'
p102
I23113
ssS'./FarFieldPointSource_316.227MeV_Cos0.5.inc1.id1.tra'
p103
(dp104
g3
S'0.5'
p105
sS'MainTriggerCsI'
p106
I45176
sg6
S'316.227'
p107
sS'MainTriggerCZTSide'
p108
I3772
sS'MainVetoSide'
p109
I11140
sS'Not triggered events'
p110
I36949
sS'Number of triggered events'
p111
I51365
sS'Number of vetoed events'
p112
I11686
sS'MainTriggerCZT'
p113
I2417
sS'MainVetoTop'
p114
I546
ssS'./FarFieldPointSource_10000.000MeV_Cos0.5.inc1.id1.tra'
p115
(dp116
g3
S'0.5'
p117
sS'MainTriggerCsI'
p118
I33062
sg6
S'10000.000'
p119
sS'MainTriggerCZTSide'
p120
I2169
sS'MainVetoSide'
p121
I9397
sS'Not triggered events'
p122
I53990
sS'Number of triggered events'
p123
I35850
sS'Number of vetoed events'
p124
I10160
sS'MainTriggerCZT'
p125
I619
sS'MainVetoTop'
p126
I763
ssS'./FarFieldPointSource_10.000MeV_Cos0.8.inc1.id1.tra'
p127
(dp128
g3
S'0.8'
p129
sS'MainTriggerCsI'
p130
I15351
sg6
S'10.000'
p131
sS'MainTriggerCZTSide'
p132
I29679
sS'MainVetoSide'
p133
I5893
sS'Not triggered events'
p134
I7613
sS'Number of triggered events'
p135
I82378
sS'Number of vetoed events'
p136
I10009
sS'MainTriggerCZT'
p137
I37348
sS'MainVetoTop'
p138
I4116
ssS'./FarFieldPointSource_158.489MeV_Cos0.6.inc1.id1.tra'
p139
(dp140
g3
S'0.6'
p141
sS'MainTriggerCsI'
p142
I43384
sg6
S'158.489'
p143
sS'MainTriggerCZTSide'
p144
I12021
sS'MainVetoSide'
p145
I11052
sS'Not triggered events'
p146
I28398
sS'Number of triggered events'
p147
I59513
sS'Number of vetoed events'
p148
I12089
sS'MainTriggerCZT'
p149
I4108
sS'MainVetoTop'
p150
I1037
ssS'./FarFieldPointSource_10.000MeV_Cos0.7.inc1.id1.tra'
p151
(dp152
g3
S'0.7'
p153
sS'MainTriggerCsI'
p154
I13509
sg6
S'10.000'
p155
sS'MainTriggerCZTSide'
p156
I31453
sS'MainVetoSide'
p157
I6529
sS'Not triggered events'
p158
I7658
sS'Number of triggered events'
p159
I82162
sS'Number of vetoed events'
p160
I10180
sS'MainTriggerCZT'
p161
I37200
sS'MainVetoTop'
p162
I3651
ssS'./FarFieldPointSource_316.227MeV_Cos1.0.inc1.id1.tra'
p163
(dp164
g3
S'1.0'
p165
sS'MainTriggerCsI'
p166
I54170
sg6
S'316.227'
p167
sS'MainTriggerCZTSide'
p168
I3533
sS'MainVetoSide'
p169
I10832
sS'Not triggered events'
p170
I28770
sS'Number of triggered events'
p171
I59625
sS'Number of vetoed events'
p172
I11605
sS'MainTriggerCZT'
p173
I1922
sS'MainVetoTop'
p174
I773
ssS'./FarFieldPointSource_15.848MeV_Cos0.8.inc1.id1.tra'
p175
(dp176
g3
S'0.8'
p177
sS'MainTriggerCsI'
p178
I17128
sg6
S'15.848'
p179
sS'MainTriggerCZTSide'
p180
I24596
sS'MainVetoSide'
p181
I7666
sS'Not triggered events'
p182
I20728
sS'Number of triggered events'
p183
I68144
sS'Number of vetoed events'
p184
I11128
sS'MainTriggerCZT'
p185
I26420
sS'MainVetoTop'
p186
I3462
ssS'./FarFieldPointSource_10000.000MeV_Cos1.0.inc1.id1.tra'
p187
(dp188
g3
S'1.0'
p189
sS'MainTriggerCsI'
p190
I58462
sg6
S'10000.000'
p191
sS'MainTriggerCZTSide'
p192
I217
sS'MainVetoSide'
p193
I3514
sS'Not triggered events'
p194
I37563
sS'Number of triggered events'
p195
I58700
sS'Number of vetoed events'
p196
I3737
sS'MainTriggerCZT'
p197
I21
sS'MainVetoTop'
p198
I223
ssS'./FarFieldPointSource_15.848MeV_Cos0.6.inc1.id1.tra'
p199
(dp200
g3
S'0.6'
p201
sS'MainTriggerCsI'
p202
I13881
sg6
S'15.848'
p203
sS'MainTriggerCZTSide'
p204
I26816
sS'MainVetoSide'
p205
I8846
sS'Not triggered events'
p206
I20474
sS'Number of triggered events'
p207
I67883
sS'Number of vetoed events'
p208
I11643
sS'MainTriggerCZT'
p209
I27186
sS'MainVetoTop'
p210
I2797
ssS'./FarFieldPointSource_10.000MeV_Cos0.6.inc1.id1.tra'
p211
(dp212
g3
S'0.6'
p213
sS'MainTriggerCsI'
p214
I12216
sg6
S'10.000'
p215
sS'MainTriggerCZTSide'
p216
I32646
sS'MainVetoSide'
p217
I7179
sS'Not triggered events'
p218
I7524
sS'Number of triggered events'
p219
I81891
sS'Number of vetoed events'
p220
I10585
sS'MainTriggerCZT'
p221
I37029
sS'MainVetoTop'
p222
I3406
ssS'./FarFieldPointSource_3.162MeV_Cos0.9.inc1.id1.tra'
p223
(dp224
g3
S'0.9'
p225
sS'MainTriggerCsI'
p226
I14704
sg6
S'3.162'
p227
sS'MainTriggerCZTSide'
p228
I34817
sS'MainVetoSide'
p229
I2876
sS'Not triggered events'
p230
I5877
sS'Number of triggered events'
p231
I88643
sS'Number of vetoed events'
p232
I5480
sS'MainTriggerCZT'
p233
I39122
sS'MainVetoTop'
p234
I2604
ssS'./FarFieldPointSource_1.000MeV_Cos1.0.inc1.id1.tra'
p235
(dp236
g3
S'1.0'
p237
sS'MainTriggerCsI'
p238
I3410
sg6
S'1.000'
p239
sS'MainTriggerCZTSide'
p240
I51892
sS'MainVetoSide'
p241
I690
sS'Not triggered events'
p242
I10218
sS'Number of triggered events'
p243
I88539
sS'Number of vetoed events'
p244
I1243
sS'MainTriggerCZT'
p245
I33237
sS'MainVetoTop'
p246
I553
ssS'./FarFieldPointSource_0.158MeV_Cos0.9.inc1.id1.tra'
p247
(dp248
g3
S'0.9'
p249
sg6
S'0.158'
p250
sS'MainTriggerCZTSide'
p251
I35722
sS'Not triggered events'
p252
I56926
sS'Number of triggered events'
p253
I43074
sS'Number of vetoed events'
p254
I0
sS'MainTriggerCZT'
p255
I7352
ssS'./FarFieldPointSource_501.187MeV_Cos0.6.inc1.id1.tra'
p256
(dp257
g3
S'0.6'
p258
sS'MainTriggerCsI'
p259
I47822
sg6
S'501.187'
p260
sS'MainTriggerCZTSide'
p261
I2437
sS'MainVetoSide'
p262
I9320
sS'Not triggered events'
p263
I37940
sS'Number of triggered events'
p264
I52267
sS'Number of vetoed events'
p265
I9793
sS'MainTriggerCZT'
p266
I2008
sS'MainVetoTop'
p267
I473
ssS'./FarFieldPointSource_501.187MeV_Cos0.9.inc1.id1.tra'
p268
(dp269
g3
S'0.9'
p270
sS'MainTriggerCsI'
p271
I53509
sg6
S'501.187'
p272
sS'MainTriggerCZTSide'
p273
I2933
sS'MainVetoSide'
p274
I7877
sS'Not triggered events'
p275
I33673
sS'Number of triggered events'
p276
I58001
sS'Number of vetoed events'
p277
I8326
sS'MainTriggerCZT'
p278
I1559
sS'MainVetoTop'
p279
I449
ssS'./FarFieldPointSource_1.000MeV_Cos0.6.inc1.id1.tra'
p280
(dp281
g3
S'0.6'
p282
sS'MainTriggerCsI'
p283
I2362
sg6
S'1.000'
p284
sS'MainTriggerCZTSide'
p285
I54593
sS'MainVetoSide'
p286
I1487
sS'Not triggered events'
p287
I9723
sS'Number of triggered events'
p288
I87638
sS'Number of vetoed events'
p289
I2639
sS'MainTriggerCZT'
p290
I30683
sS'MainVetoTop'
p291
I1152
ssS'./FarFieldPointSource_5.011MeV_Cos0.9.inc1.id1.tra'
p292
(dp293
g3
S'0.9'
p294
sS'MainTriggerCsI'
p295
I16004
sg6
S'5.011'
p296
sS'MainTriggerCZTSide'
p297
I32216
sS'MainVetoSide'
p298
I3115
sS'Not triggered events'
p299
I5458
sS'Number of triggered events'
p300
I87943
sS'Number of vetoed events'
p301
I6599
sS'MainTriggerCZT'
p302
I39723
sS'MainVetoTop'
p303
I3484
ssS'./FarFieldPointSource_1584.893MeV_Cos0.6.inc1.id1.tra'
p304
(dp305
g3
S'0.6'
p306
sS'MainTriggerCsI'
p307
I47378
sg6
S'1584.893'
p308
sS'MainTriggerCZTSide'
p309
I1426
sS'MainVetoSide'
p310
I9517
sS'Not triggered events'
p311
I40392
sS'Number of triggered events'
p312
I49639
sS'Number of vetoed events'
p313
I9969
sS'MainTriggerCZT'
p314
I835
sS'MainVetoTop'
p315
I452
ssS'./FarFieldPointSource_0.501MeV_Cos0.8.inc1.id1.tra'
p316
(dp317
g3
S'0.8'
p318
sS'MainTriggerCsI'
p319
I315
sg6
S'0.501'
p320
sS'MainTriggerCZTSide'
p321
I59042
sS'Not triggered events'
p322
I17336
sS'Number of triggered events'
p323
I82664
sS'Number of vetoed events'
p324
I0
sS'MainTriggerCZT'
p325
I23307
ssS'./FarFieldPointSource_3.162MeV_Cos1.0.inc1.id1.tra'
p326
(dp327
g3
S'1.0'
p328
sS'MainTriggerCsI'
p329
I17350
sg6
S'3.162'
p330
sS'MainTriggerCZTSide'
p331
I31324
sS'MainVetoSide'
p332
I1797
sS'Not triggered events'
p333
I5630
sS'Number of triggered events'
p334
I89665
sS'Number of vetoed events'
p335
I4705
sS'MainTriggerCZT'
p336
I40991
sS'MainVetoTop'
p337
I2908
ssS'./FarFieldPointSource_0.501MeV_Cos0.5.inc1.id1.tra'
p338
(dp339
g3
S'0.5'
p340
sS'MainTriggerCsI'
p341
I254
sg6
S'0.501'
p342
sS'MainTriggerCZTSide'
p343
I59143
sS'Not triggered events'
p344
I17822
sS'Number of triggered events'
p345
I82178
sS'Number of vetoed events'
p346
I0
sS'MainTriggerCZT'
p347
I22781
ssS'./FarFieldPointSource_0.158MeV_Cos0.5.inc1.id1.tra'
p348
(dp349
g3
S'0.5'
p350
sg6
S'0.158'
p351
sS'MainTriggerCZTSide'
p352
I37078
sS'Not triggered events'
p353
I55516
sS'Number of triggered events'
p354
I44484
sS'Number of vetoed events'
p355
I0
sS'MainTriggerCZT'
p356
I7406
ssS'./FarFieldPointSource_1000.000MeV_Cos0.8.inc1.id1.tra'
p357
(dp358
g3
S'0.8'
p359
sS'MainTriggerCsI'
p360
I51127
sg6
S'1000.000'
p361
sS'MainTriggerCZTSide'
p362
I1744
sS'MainVetoSide'
p363
I8183
sS'Not triggered events'
p364
I37572
sS'Number of triggered events'
p365
I53837
sS'Number of vetoed events'
p366
I8591
sS'MainTriggerCZT'
p367
I966
sS'MainVetoTop'
p368
I408
ssS'./FarFieldPointSource_1584.893MeV_Cos0.7.inc1.id1.tra'
p369
(dp370
g3
S'0.7'
p371
sS'MainTriggerCsI'
p372
I49396
sg6
S'1584.893'
p373
sS'MainTriggerCZTSide'
p374
I1389
sS'MainVetoSide'
p375
I8956
sS'Not triggered events'
p376
I39073
sS'Number of triggered events'
p377
I51542
sS'Number of vetoed events'
p378
I9385
sS'MainTriggerCZT'
p379
I757
sS'MainVetoTop'
p380
I429
ssS'./FarFieldPointSource_50.118MeV_Cos0.7.inc1.id1.tra'
p381
(dp382
g3
S'0.7'
p383
sS'MainTriggerCsI'
p384
I30634
sg6
S'50.118'
p385
sS'MainTriggerCZTSide'
p386
I19830
sS'MainVetoSide'
p387
I7403
sS'Not triggered events'
p388
I30038
sS'Number of triggered events'
p389
I61387
sS'Number of vetoed events'
p390
I8575
sS'MainTriggerCZT'
p391
I10923
sS'MainVetoTop'
p392
I1172
ssS'./FarFieldPointSource_1.584MeV_Cos1.0.inc1.id1.tra'
p393
(dp394
g3
S'1.0'
p395
sS'MainTriggerCsI'
p396
I9005
sg6
S'1.584'
p397
sS'MainTriggerCZTSide'
p398
I41213
sS'MainVetoSide'
p399
I1441
sS'Not triggered events'
p400
I7600
sS'Number of triggered events'
p401
I89114
sS'Number of vetoed events'
p402
I3286
sS'MainTriggerCZT'
p403
I38896
sS'MainVetoTop'
p404
I1845
ssS'./FarFieldPointSource_158.489MeV_Cos0.5.inc1.id1.tra'
p405
(dp406
g3
S'0.5'
p407
sS'MainTriggerCsI'
p408
I43063
sg6
S'158.489'
p409
sS'MainTriggerCZTSide'
p410
I11148
sS'MainVetoSide'
p411
I11818
sS'Not triggered events'
p412
I28789
sS'Number of triggered events'
p413
I58319
sS'Number of vetoed events'
p414
I12892
sS'MainTriggerCZT'
p415
I4108
sS'MainVetoTop'
p416
I1074
ssS'./FarFieldPointSource_1.000MeV_Cos0.7.inc1.id1.tra'
p417
(dp418
g3
S'0.7'
p419
sS'MainTriggerCsI'
p420
I2549
sg6
S'1.000'
p421
sS'MainTriggerCZTSide'
p422
I54455
sS'MainVetoSide'
p423
I1587
sS'Not triggered events'
p424
I9772
sS'Number of triggered events'
p425
I87603
sS'Number of vetoed events'
p426
I2625
sS'MainTriggerCZT'
p427
I30599
sS'MainVetoTop'
p428
I1038
ssS'./FarFieldPointSource_1.584MeV_Cos0.6.inc1.id1.tra'
p429
(dp430
g3
S'0.6'
p431
sS'MainTriggerCsI'
p432
I5478
sg6
S'1.584'
p433
sS'MainTriggerCZTSide'
p434
I47582
sS'MainVetoSide'
p435
I2651
sS'Not triggered events'
p436
I7117
sS'Number of triggered events'
p437
I88362
sS'Number of vetoed events'
p438
I4521
sS'MainTriggerCZT'
p439
I35302
sS'MainVetoTop'
p440
I1870
ssS'./FarFieldPointSource_1000.000MeV_Cos0.6.inc1.id1.tra'
p441
(dp442
g3
S'0.6'
p443
sS'MainTriggerCsI'
p444
I47725
sg6
S'1000.000'
p445
sS'MainTriggerCZTSide'
p446
I1660
sS'MainVetoSide'
p447
I9361
sS'Not triggered events'
p448
I39698
sS'Number of triggered events'
p449
I50507
sS'Number of vetoed events'
p450
I9795
sS'MainTriggerCZT'
p451
I1122
sS'MainVetoTop'
p452
I434
ssS'./FarFieldPointSource_0.316MeV_Cos0.7.inc1.id1.tra'
p453
(dp454
g3
S'0.7'
p455
sS'MainTriggerCsI'
p456
I12
sg6
S'0.316'
p457
sS'MainTriggerCZTSide'
p458
I54535
sS'Not triggered events'
p459
I26875
sS'Number of triggered events'
p460
I73125
sS'Number of vetoed events'
p461
I0
sS'MainTriggerCZT'
p462
I18578
ssS'./FarFieldPointSource_3162.277MeV_Cos0.5.inc1.id1.tra'
p463
(dp464
g3
S'0.5'
p465
sS'MainTriggerCsI'
p466
I41334
sg6
S'3162.277'
p467
sS'MainTriggerCZTSide'
p468
I1782
sS'MainVetoSide'
p469
I9980
sS'Not triggered events'
p470
I45491
sS'Number of triggered events'
p471
I43885
sS'Number of vetoed events'
p472
I10624
sS'MainTriggerCZT'
p473
I769
sS'MainVetoTop'
p474
I644
ssS'./FarFieldPointSource_1584.893MeV_Cos0.8.inc1.id1.tra'
p475
(dp476
g3
S'0.8'
p477
sS'MainTriggerCsI'
p478
I51976
sg6
S'1584.893'
p479
sS'MainTriggerCZTSide'
p480
I1426
sS'MainVetoSide'
p481
I7164
sS'Not triggered events'
p482
I38331
sS'Number of triggered events'
p483
I54103
sS'Number of vetoed events'
p484
I7566
sS'MainTriggerCZT'
p485
I701
sS'MainVetoTop'
p486
I402
ssS'./FarFieldPointSource_158.489MeV_Cos1.0.inc1.id1.tra'
p487
(dp488
g3
S'1.0'
p489
sS'MainTriggerCsI'
p490
I48631
sg6
S'158.489'
p491
sS'MainTriggerCZTSide'
p492
I11906
sS'MainVetoSide'
p493
I10419
sS'Not triggered events'
p494
I23186
sS'Number of triggered events'
p495
I64966
sS'Number of vetoed events'
p496
I11848
sS'MainTriggerCZT'
p497
I4429
sS'MainVetoTop'
p498
I1429
ssS'./FarFieldPointSource_31.622MeV_Cos0.5.inc1.id1.tra'
p499
(dp500
g3
S'0.5'
p501
sS'MainTriggerCsI'
p502
I20093
sg6
S'31.622'
p503
sS'MainTriggerCZTSide'
p504
I23065
sS'MainVetoSide'
p505
I7948
sS'Not triggered events'
p506
I28645
sS'Number of triggered events'
p507
I61981
sS'Number of vetoed events'
p508
I9374
sS'MainTriggerCZT'
p509
I18823
sS'MainVetoTop'
p510
I1426
ssS'./FarFieldPointSource_15.848MeV_Cos0.5.inc1.id1.tra'
p511
(dp512
g3
S'0.5'
p513
sS'MainTriggerCsI'
p514
I11826
sg6
S'15.848'
p515
sS'MainTriggerCZTSide'
p516
I28328
sS'MainVetoSide'
p517
I9167
sS'Not triggered events'
p518
I20018
sS'Number of triggered events'
p519
I68104
sS'Number of vetoed events'
p520
I11878
sS'MainTriggerCZT'
p521
I27950
sS'MainVetoTop'
p522
I2711
ssS'./FarFieldPointSource_1.000MeV_Cos0.5.inc1.id1.tra'
p523
(dp524
g3
S'0.5'
p525
sS'MainTriggerCsI'
p526
I2187
sg6
S'1.000'
p527
sS'MainTriggerCZTSide'
p528
I54682
sS'MainVetoSide'
p529
I1524
sS'Not triggered events'
p530
I9795
sS'Number of triggered events'
p531
I87480
sS'Number of vetoed events'
p532
I2725
sS'MainTriggerCZT'
p533
I30611
sS'MainVetoTop'
p534
I1201
ssS'./FarFieldPointSource_50.118MeV_Cos0.9.inc1.id1.tra'
p535
(dp536
g3
S'0.9'
p537
sS'MainTriggerCsI'
p538
I34201
sg6
S'50.118'
p539
sS'MainTriggerCZTSide'
p540
I18698
sS'MainVetoSide'
p541
I7264
sS'Not triggered events'
p542
I29017
sS'Number of triggered events'
p543
I62307
sS'Number of vetoed events'
p544
I8676
sS'MainTriggerCZT'
p545
I9408
sS'MainVetoTop'
p546
I1412
ssS'./FarFieldPointSource_1.000MeV_Cos0.8.inc1.id1.tra'
p547
(dp548
g3
S'0.8'
p549
sS'MainTriggerCsI'
p550
I2691
sg6
S'1.000'
p551
sS'MainTriggerCZTSide'
p552
I53929
sS'MainVetoSide'
p553
I1608
sS'Not triggered events'
p554
I10020
sS'Number of triggered events'
p555
I87450
sS'Number of vetoed events'
p556
I2530
sS'MainTriggerCZT'
p557
I30830
sS'MainVetoTop'
p558
I922
ssS'./FarFieldPointSource_0.501MeV_Cos1.0.inc1.id1.tra'
p559
(dp560
g3
S'1.0'
p561
sS'MainTriggerCsI'
p562
I351
sg6
S'0.501'
p563
sS'MainTriggerCZTSide'
p564
I60649
sS'Not triggered events'
p565
I15039
sS'Number of triggered events'
p566
I84961
sS'Number of vetoed events'
p567
I0
sS'MainTriggerCZT'
p568
I23961
ssS'./FarFieldPointSource_1584.893MeV_Cos0.5.inc1.id1.tra'
p569
(dp570
g3
S'0.5'
p571
sS'MainTriggerCsI'
p572
I43667
sg6
S'1584.893'
p573
sS'MainTriggerCZTSide'
p574
I1711
sS'MainVetoSide'
p575
I10067
sS'Not triggered events'
p576
I42978
sS'Number of triggered events'
p577
I46389
sS'Number of vetoed events'
p578
I10633
sS'MainTriggerCZT'
p579
I1011
sS'MainVetoTop'
p580
I566
ssS'./FarFieldPointSource_501.187MeV_Cos0.8.inc1.id1.tra'
p581
(dp582
g3
S'0.8'
p583
sS'MainTriggerCsI'
p584
I50501
sg6
S'501.187'
p585
sS'MainTriggerCZTSide'
p586
I2657
sS'MainVetoSide'
p587
I9111
sS'Not triggered events'
p588
I35540
sS'Number of triggered events'
p589
I54901
sS'Number of vetoed events'
p590
I9559
sS'MainTriggerCZT'
p591
I1743
sS'MainVetoTop'
p592
I448
ssS'./FarFieldPointSource_0.501MeV_Cos0.6.inc1.id1.tra'
p593
(dp594
g3
S'0.6'
p595
sS'MainTriggerCsI'
p596
I256
sg6
S'0.501'
p597
sS'MainTriggerCZTSide'
p598
I59168
sS'Not triggered events'
p599
I17743
sS'Number of triggered events'
p600
I82257
sS'Number of vetoed events'
p601
I0
sS'MainTriggerCZT'
p602
I22833
ssS'./FarFieldPointSource_1000.000MeV_Cos0.9.inc1.id1.tra'
p603
(dp604
g3
S'0.9'
p605
sS'MainTriggerCsI'
p606
I55636
sg6
S'1000.000'
p607
sS'MainTriggerCZTSide'
p608
I1788
sS'MainVetoSide'
p609
I5423
sS'Not triggered events'
p610
I36039
sS'Number of triggered events'
p611
I58207
sS'Number of vetoed events'
p612
I5754
sS'MainTriggerCZT'
p613
I783
sS'MainVetoTop'
p614
I331
ssS'./FarFieldPointSource_15.848MeV_Cos0.7.inc1.id1.tra'
p615
(dp616
g3
S'0.7'
p617
sS'MainTriggerCsI'
p618
I15311
sg6
S'15.848'
p619
sS'MainTriggerCZTSide'
p620
I25852
sS'MainVetoSide'
p621
I8339
sS'Not triggered events'
p622
I20904
sS'Number of triggered events'
p623
I67692
sS'Number of vetoed events'
p624
I11404
sS'MainTriggerCZT'
p625
I26529
sS'MainVetoTop'
p626
I3065
ssS'./FarFieldPointSource_316.227MeV_Cos0.9.inc1.id1.tra'
p627
(dp628
g3
S'0.9'
p629
sS'MainTriggerCsI'
p630
I50594
sg6
S'316.227'
p631
sS'MainTriggerCZTSide'
p632
I5009
sS'MainVetoSide'
p633
I10074
sS'Not triggered events'
p634
I31366
sS'Number of triggered events'
p635
I57866
sS'Number of vetoed events'
p636
I10768
sS'MainTriggerCZT'
p637
I2263
sS'MainVetoTop'
p638
I694
ssS'./FarFieldPointSource_5011.872MeV_Cos0.5.inc1.id1.tra'
p639
(dp640
g3
S'0.5'
p641
sS'MainTriggerCsI'
p642
I32694
sg6
S'5011.872'
p643
sS'MainTriggerCZTSide'
p644
I1577
sS'MainVetoSide'
p645
I8471
sS'Not triggered events'
p646
I40688
sS'Number of triggered events'
p647
I34862
sS'Number of vetoed events'
p648
I9074
sS'MainTriggerCZT'
p649
I591
sS'MainVetoTop'
p650
I603
ssS'./FarFieldPointSource_10000.000MeV_Cos0.9.inc1.id1.tra'
p651
(dp652
g3
S'0.9'
p653
sS'MainTriggerCsI'
p654
I58282
sg6
S'10000.000'
p655
sS'MainTriggerCZTSide'
p656
I903
sS'MainVetoSide'
p657
I2993
sS'Not triggered events'
p658
I37483
sS'Number of triggered events'
p659
I59265
sS'Number of vetoed events'
p660
I3252
sS'MainTriggerCZT'
p661
I80
sS'MainVetoTop'
p662
I259
ssS'./FarFieldPointSource_316.227MeV_Cos0.6.inc1.id1.tra'
p663
(dp664
g3
S'0.6'
p665
sS'MainTriggerCsI'
p666
I47297
sg6
S'316.227'
p667
sS'MainTriggerCZTSide'
p668
I3823
sS'MainVetoSide'
p669
I10575
sS'Not triggered events'
p670
I35287
sS'Number of triggered events'
p671
I53522
sS'Number of vetoed events'
p672
I11191
sS'MainTriggerCZT'
p673
I2402
sS'MainVetoTop'
p674
I616
ssS'./FarFieldPointSource_50.118MeV_Cos1.0.inc1.id1.tra'
p675
(dp676
g3
S'1.0'
p677
sS'MainTriggerCsI'
p678
I41003
sg6
S'50.118'
p679
sS'MainTriggerCZTSide'
p680
I16568
sS'MainVetoSide'
p681
I6386
sS'Not triggered events'
p682
I25605
sS'Number of triggered events'
p683
I66044
sS'Number of vetoed events'
p684
I8351
sS'MainTriggerCZT'
p685
I8473
sS'MainVetoTop'
p686
I1965
ssS'./FarFieldPointSource_158.489MeV_Cos0.7.inc1.id1.tra'
p687
(dp688
g3
S'0.7'
p689
sS'MainTriggerCsI'
p690
I43547
sg6
S'158.489'
p691
sS'MainTriggerCZTSide'
p692
I12484
sS'MainVetoSide'
p693
I10851
sS'Not triggered events'
p694
I27928
sS'Number of triggered events'
p695
I60230
sS'Number of vetoed events'
p696
I11842
sS'MainTriggerCZT'
p697
I4199
sS'MainVetoTop'
p698
I991
ssS'./FarFieldPointSource_501.187MeV_Cos0.7.inc1.id1.tra'
p699
(dp700
g3
S'0.7'
p701
sS'MainTriggerCsI'
p702
I49170
sg6
S'501.187'
p703
sS'MainTriggerCZTSide'
p704
I2368
sS'MainVetoSide'
p705
I9423
sS'Not triggered events'
p706
I36703
sS'Number of triggered events'
p707
I53414
sS'Number of vetoed events'
p708
I9883
sS'MainTriggerCZT'
p709
I1876
sS'MainVetoTop'
p710
I460
ssS'./FarFieldPointSource_10.000MeV_Cos0.5.inc1.id1.tra'
p711
(dp712
g3
S'0.5'
p713
sS'MainTriggerCsI'
p714
I10555
sg6
S'10.000'
p715
sS'MainTriggerCZTSide'
p716
I34282
sS'MainVetoSide'
p717
I7505
sS'Not triggered events'
p718
I7429
sS'Number of triggered events'
p719
I81948
sS'Number of vetoed events'
p720
I10623
sS'MainTriggerCZT'
p721
I37111
sS'MainVetoTop'
p722
I3118
ssS'./FarFieldPointSource_31.622MeV_Cos0.8.inc1.id1.tra'
p723
(dp724
g3
S'0.8'
p725
sS'MainTriggerCsI'
p726
I25485
sg6
S'31.622'
p727
sS'MainTriggerCZTSide'
p728
I21327
sS'MainVetoSide'
p729
I7299
sS'Not triggered events'
p730
I29499
sS'Number of triggered events'
p731
I61610
sS'Number of vetoed events'
p732
I8891
sS'MainTriggerCZT'
p733
I14798
sS'MainVetoTop'
p734
I1592
ssS'./FarFieldPointSource_3.162MeV_Cos0.5.inc1.id1.tra'
p735
(dp736
g3
S'0.5'
p737
sS'MainTriggerCsI'
p738
I8893
sg6
S'3.162'
p739
sS'MainTriggerCZTSide'
p740
I41660
sS'MainVetoSide'
p741
I3557
sS'Not triggered events'
p742
I5613
sS'Number of triggered events'
p743
I88596
sS'Number of vetoed events'
p744
I5791
sS'MainTriggerCZT'
p745
I38043
sS'MainVetoTop'
p746
I2234
ssS'./FarFieldPointSource_5011.872MeV_Cos0.6.inc1.id1.tra'
p747
(dp748
g3
S'0.6'
p749
sS'MainTriggerCsI'
p750
I44761
sg6
S'5011.872'
p751
sS'MainTriggerCZTSide'
p752
I1473
sS'MainVetoSide'
p753
I8844
sS'Not triggered events'
p754
I43766
sS'Number of triggered events'
p755
I46837
sS'Number of vetoed events'
p756
I9397
sS'MainTriggerCZT'
p757
I603
sS'MainVetoTop'
p758
I553
ssS'./FarFieldPointSource_100.000MeV_Cos0.9.inc1.id1.tra'
p759
(dp760
g3
S'0.9'
p761
sS'MainTriggerCsI'
p762
I40121
sg6
S'100.000'
p763
sS'MainTriggerCZTSide'
p764
I15807
sS'MainVetoSide'
p765
I8694
sS'Not triggered events'
p766
I27557
sS'Number of triggered events'
p767
I62596
sS'Number of vetoed events'
p768
I9847
sS'MainTriggerCZT'
p769
I6668
sS'MainVetoTop'
p770
I1153
ssS'./FarFieldPointSource_100.000MeV_Cos0.7.inc1.id1.tra'
p771
(dp772
g3
S'0.7'
p773
sS'MainTriggerCsI'
p774
I38973
sg6
S'100.000'
p775
sS'MainTriggerCZTSide'
p776
I15720
sS'MainVetoSide'
p777
I9067
sS'Not triggered events'
p778
I28955
sS'Number of triggered events'
p779
I60960
sS'Number of vetoed events'
p780
I10085
sS'MainTriggerCZT'
p781
I6267
sS'MainVetoTop'
p782
I1018
ssS'./FarFieldPointSource_1.584MeV_Cos0.7.inc1.id1.tra'
p783
(dp784
g3
S'0.7'
p785
sS'MainTriggerCsI'
p786
I6118
sg6
S'1.584'
p787
sS'MainTriggerCZTSide'
p788
I46619
sS'MainVetoSide'
p789
I2628
sS'Not triggered events'
p790
I7328
sS'Number of triggered events'
p791
I88171
sS'Number of vetoed events'
p792
I4501
sS'MainTriggerCZT'
p793
I35434
sS'MainVetoTop'
p794
I1873
ssS'./FarFieldPointSource_1000.000MeV_Cos0.7.inc1.id1.tra'
p795
(dp796
g3
S'0.7'
p797
sS'MainTriggerCsI'
p798
I49794
sg6
S'1000.000'
p799
sS'MainTriggerCZTSide'
p800
I1671
sS'MainVetoSide'
p801
I8838
sS'Not triggered events'
p802
I38216
sS'Number of triggered events'
p803
I52547
sS'Number of vetoed events'
p804
I9237
sS'MainTriggerCZT'
p805
I1082
sS'MainVetoTop'
p806
I399
ssS'./FarFieldPointSource_5011.872MeV_Cos0.9.inc1.id1.tra'
p807
(dp808
g3
S'0.9'
p809
sS'MainTriggerCsI'
p810
I57872
sg6
S'5011.872'
p811
sS'MainTriggerCZTSide'
p812
I958
sS'MainVetoSide'
p813
I3227
sS'Not triggered events'
p814
I37535
sS'Number of triggered events'
p815
I58969
sS'Number of vetoed events'
p816
I3496
sS'MainTriggerCZT'
p817
I139
sS'MainVetoTop'
p818
I269
ssS'./FarFieldPointSource_0.316MeV_Cos0.6.inc1.id1.tra'
p819
(dp820
g3
S'0.6'
p821
sS'MainTriggerCsI'
p822
I14
sg6
S'0.316'
p823
sS'MainTriggerCZTSide'
p824
I54403
sS'Not triggered events'
p825
I27199
sS'Number of triggered events'
p826
I72801
sS'Number of vetoed events'
p827
I0
sS'MainTriggerCZT'
p828
I18384
ssS'./FarFieldPointSource_0.158MeV_Cos0.8.inc1.id1.tra'
p829
(dp830
g3
S'0.8'
p831
sg6
S'0.158'
p832
sS'MainTriggerCZTSide'
p833
I35921
sS'Not triggered events'
p834
I56962
sS'Number of triggered events'
p835
I43038
sS'Number of vetoed events'
p836
I0
sS'MainTriggerCZT'
p837
I7117
ssS'./FarFieldPointSource_1000.000MeV_Cos0.5.inc1.id1.tra'
p838
(dp839
g3
S'0.5'
p840
sS'MainTriggerCsI'
p841
I44983
sg6
S'1000.000'
p842
sS'MainTriggerCZTSide'
p843
I1876
sS'MainVetoSide'
p844
I9665
sS'Not triggered events'
p845
I41654
sS'Number of triggered events'
p846
I48183
sS'Number of vetoed events'
p847
I10163
sS'MainTriggerCZT'
p848
I1324
sS'MainVetoTop'
p849
I498
ssS'./FarFieldPointSource_0.316MeV_Cos0.8.inc1.id1.tra'
p850
(dp851
g3
S'0.8'
p852
sS'MainTriggerCsI'
p853
I7
sg6
S'0.316'
p854
sS'MainTriggerCZTSide'
p855
I55211
sS'Not triggered events'
p856
I26475
sS'Number of triggered events'
p857
I73525
sS'Number of vetoed events'
p858
I0
sS'MainTriggerCZT'
p859
I18307
ssS'./FarFieldPointSource_10.000MeV_Cos0.9.inc1.id1.tra'
p860
(dp861
g3
S'0.9'
p862
sS'MainTriggerCsI'
p863
I17350
sg6
S'10.000'
p864
sS'MainTriggerCZTSide'
p865
I27840
sS'MainVetoSide'
p866
I5044
sS'Not triggered events'
p867
I7284
sS'Number of triggered events'
p868
I82986
sS'Number of vetoed events'
p869
I9730
sS'MainTriggerCZT'
p870
I37796
sS'MainVetoTop'
p871
I4686
ssS'./FarFieldPointSource_1584.893MeV_Cos1.0.inc1.id1.tra'
p872
(dp873
g3
S'1.0'
p874
sS'MainTriggerCsI'
p875
I61179
sg6
S'1584.893'
p876
sS'MainTriggerCZTSide'
p877
I463
sS'MainVetoSide'
p878
I4086
sS'Not triggered events'
p879
I33999
sS'Number of triggered events'
p880
I61707
sS'Number of vetoed events'
p881
I4294
sS'MainTriggerCZT'
p882
I65
sS'MainVetoTop'
p883
I208
ssS'./FarFieldPointSource_1.584MeV_Cos0.9.inc1.id1.tra'
p884
(dp885
g3
S'0.9'
p886
sS'MainTriggerCsI'
p887
I7594
sg6
S'1.584'
p888
sS'MainTriggerCZTSide'
p889
I43626
sS'MainVetoSide'
p890
I2573
sS'Not triggered events'
p891
I7772
sS'Number of triggered events'
p892
I87878
sS'Number of vetoed events'
p893
I4350
sS'MainTriggerCZT'
p894
I36658
sS'MainVetoTop'
p895
I1777
ssS'./FarFieldPointSource_0.316MeV_Cos0.9.inc1.id1.tra'
p896
(dp897
g3
S'0.9'
p898
sS'MainTriggerCsI'
p899
I18
sg6
S'0.316'
p900
sS'MainTriggerCZTSide'
p901
I56210
sS'Not triggered events'
p902
I25374
sS'Number of triggered events'
p903
I74626
sS'Number of vetoed events'
p904
I0
sS'MainTriggerCZT'
p905
I18398
ssS'./FarFieldPointSource_50.118MeV_Cos0.6.inc1.id1.tra'
p906
(dp907
g3
S'0.6'
p908
sS'MainTriggerCsI'
p909
I29674
sg6
S'50.118'
p910
sS'MainTriggerCZTSide'
p911
I19909
sS'MainVetoSide'
p912
I7710
sS'Not triggered events'
p913
I29598
sS'Number of triggered events'
p914
I61580
sS'Number of vetoed events'
p915
I8822
sS'MainTriggerCZT'
p916
I11997
sS'MainVetoTop'
p917
I1112
ssS'./FarFieldPointSource_10000.000MeV_Cos0.7.inc1.id1.tra'
p918
(dp919
g3
S'0.7'
p920
sS'MainTriggerCsI'
p921
I48993
sg6
S'10000.000'
p922
sS'MainTriggerCZTSide'
p923
I1269
sS'MainVetoSide'
p924
I6253
sS'Not triggered events'
p925
I42478
sS'Number of triggered events'
p926
I50803
sS'Number of vetoed events'
p927
I6719
sS'MainTriggerCZT'
p928
I541
sS'MainVetoTop'
p929
I466
ssS'./FarFieldPointSource_5011.872MeV_Cos1.0.inc1.id1.tra'
p930
(dp931
g3
S'1.0'
p932
sS'MainTriggerCsI'
p933
I59044
sg6
S'5011.872'
p934
sS'MainTriggerCZTSide'
p935
I205
sS'MainVetoSide'
p936
I3733
sS'Not triggered events'
p937
I36782
sS'Number of triggered events'
p938
I59271
sS'Number of vetoed events'
p939
I3947
sS'MainTriggerCZT'
p940
I22
sS'MainVetoTop'
p941
I214
ssS'./FarFieldPointSource_316.227MeV_Cos0.7.inc1.id1.tra'
p942
(dp943
g3
S'0.7'
p944
sS'MainTriggerCsI'
p945
I48194
sg6
S'316.227'
p946
sS'MainTriggerCZTSide'
p947
I4078
sS'MainVetoSide'
p948
I10578
sS'Not triggered events'
p949
I34186
sS'Number of triggered events'
p950
I54679
sS'Number of vetoed events'
p951
I11135
sS'MainTriggerCZT'
p952
I2407
sS'MainVetoTop'
p953
I557
ssS'./FarFieldPointSource_5011.872MeV_Cos0.8.inc1.id1.tra'
p954
(dp955
g3
S'0.8'
p956
sS'MainTriggerCsI'
p957
I54316
sg6
S'5011.872'
p958
sS'MainTriggerCZTSide'
p959
I1216
sS'MainVetoSide'
p960
I5159
sS'Not triggered events'
p961
I38589
sS'Number of triggered events'
p962
I55931
sS'Number of vetoed events'
p963
I5480
sS'MainTriggerCZT'
p964
I399
sS'MainVetoTop'
p965
I321
ssS'./FarFieldPointSource_31.622MeV_Cos0.9.inc1.id1.tra'
p966
(dp967
g3
S'0.9'
p968
sS'MainTriggerCsI'
p969
I28531
sg6
S'31.622'
p970
sS'MainTriggerCZTSide'
p971
I20433
sS'MainVetoSide'
p972
I6952
sS'Not triggered events'
p973
I28214
sS'Number of triggered events'
p974
I62989
sS'Number of vetoed events'
p975
I8797
sS'MainTriggerCZT'
p976
I14025
sS'MainVetoTop'
p977
I1845
ssS'./FarFieldPointSource_31.622MeV_Cos0.6.inc1.id1.tra'
p978
(dp979
g3
S'0.6'
p980
sS'MainTriggerCsI'
p981
I22139
sg6
S'31.622'
p982
sS'MainTriggerCZTSide'
p983
I22423
sS'MainVetoSide'
p984
I7460
sS'Not triggered events'
p985
I29561
sS'Number of triggered events'
p986
I61532
sS'Number of vetoed events'
p987
I8907
sS'MainTriggerCZT'
p988
I16970
sS'MainVetoTop'
p989
I1447
ssS'./FarFieldPointSource_10000.000MeV_Cos0.6.inc1.id1.tra'
p990
(dp991
g3
S'0.6'
p992
sS'MainTriggerCsI'
p993
I41689
sg6
S'10000.000'
p994
sS'MainTriggerCZTSide'
p995
I1543
sS'MainVetoSide'
p996
I8033
sS'Not triggered events'
p997
I47519
sS'Number of triggered events'
p998
I43818
sS'Number of vetoed events'
p999
I8663
sS'MainTriggerCZT'
p1000
I586
sS'MainVetoTop'
p1001
I630
ssS'./FarFieldPointSource_5011.872MeV_Cos0.7.inc1.id1.tra'
p1002
(dp1003
g3
S'0.7'
p1004
sS'MainTriggerCsI'
p1005
I49931
sg6
S'5011.872'
p1006
sS'MainTriggerCZTSide'
p1007
I1240
sS'MainVetoSide'
p1008
I7313
sS'Not triggered events'
p1009
I40453
sS'Number of triggered events'
p1010
I51760
sS'Number of vetoed events'
p1011
I7787
sS'MainTriggerCZT'
p1012
I589
sS'MainVetoTop'
p1013
I474
ssS'./FarFieldPointSource_50.118MeV_Cos0.8.inc1.id1.tra'
p1014
(dp1015
g3
S'0.8'
p1016
sS'MainTriggerCsI'
p1017
I32065
sg6
S'50.118'
p1018
sS'MainTriggerCZTSide'
p1019
I19765
sS'MainVetoSide'
p1020
I7217
sS'Not triggered events'
p1021
I29749
sS'Number of triggered events'
p1022
I61848
sS'Number of vetoed events'
p1023
I8403
sS'MainTriggerCZT'
p1024
I10018
sS'MainVetoTop'
p1025
I1186
ssS'./FarFieldPointSource_10000.000MeV_Cos0.8.inc1.id1.tra'
p1026
(dp1027
g3
S'0.8'
p1028
sS'MainTriggerCsI'
p1029
I54440
sg6
S'10000.000'
p1030
sS'MainTriggerCZTSide'
p1031
I1124
sS'MainVetoSide'
p1032
I4386
sS'Not triggered events'
p1033
I39425
sS'Number of triggered events'
p1034
I55829
sS'Number of vetoed events'
p1035
I4746
sS'MainTriggerCZT'
p1036
I265
sS'MainVetoTop'
p1037
I360
ssS'./FarFieldPointSource_316.227MeV_Cos0.8.inc1.id1.tra'
p1038
(dp1039
g3
S'0.8'
p1040
sS'MainTriggerCsI'
p1041
I49035
sg6
S'316.227'
p1042
sS'MainTriggerCZTSide'
p1043
I4558
sS'MainVetoSide'
p1044
I10240
sS'Not triggered events'
p1045
I33176
sS'Number of triggered events'
p1046
I55989
sS'Number of vetoed events'
p1047
I10835
sS'MainTriggerCZT'
p1048
I2396
sS'MainVetoTop'
p1049
I595
ssS'./FarFieldPointSource_1.000MeV_Cos0.9.inc1.id1.tra'
p1050
(dp1051
g3
S'0.9'
p1052
sS'MainTriggerCsI'
p1053
I2974
sg6
S'1.000'
p1054
sS'MainTriggerCZTSide'
p1055
I52781
sS'MainVetoSide'
p1056
I1648
sS'Not triggered events'
p1057
I10333
sS'Number of triggered events'
p1058
I87254
sS'Number of vetoed events'
p1059
I2413
sS'MainTriggerCZT'
p1060
I31499
sS'MainVetoTop'
p1061
I765
ssS'./FarFieldPointSource_50.118MeV_Cos0.5.inc1.id1.tra'
p1062
(dp1063
g3
S'0.5'
p1064
sS'MainTriggerCsI'
p1065
I28113
sg6
S'50.118'
p1066
sS'MainTriggerCZTSide'
p1067
I19765
sS'MainVetoSide'
p1068
I8168
sS'Not triggered events'
p1069
I29002
sS'Number of triggered events'
p1070
I61634
sS'Number of vetoed events'
p1071
I9364
sS'MainTriggerCZT'
p1072
I13756
sS'MainVetoTop'
p1073
I1196
ssS'./FarFieldPointSource_3.162MeV_Cos0.7.inc1.id1.tra'
p1074
(dp1075
g3
S'0.7'
p1076
sS'MainTriggerCsI'
p1077
I11331
sg6
S'3.162'
p1078
sS'MainTriggerCZTSide'
p1079
I38739
sS'MainVetoSide'
p1080
I3323
sS'Not triggered events'
p1081
I5731
sS'Number of triggered events'
p1082
I88467
sS'Number of vetoed events'
p1083
I5802
sS'MainTriggerCZT'
p1084
I38397
sS'MainVetoTop'
p1085
I2479
ssS'./FarFieldPointSource_5.011MeV_Cos0.5.inc1.id1.tra'
p1086
(dp1087
g3
S'0.5'
p1088
sS'MainTriggerCsI'
p1089
I10006
sg6
S'5.011'
p1090
sS'MainTriggerCZTSide'
p1091
I38660
sS'MainVetoSide'
p1092
I4297
sS'Not triggered events'
p1093
I5565
sS'Number of triggered events'
p1094
I87614
sS'Number of vetoed events'
p1095
I6821
sS'MainTriggerCZT'
p1096
I38948
sS'MainVetoTop'
p1097
I2524
ssS'./FarFieldPointSource_3162.277MeV_Cos0.7.inc1.id1.tra'
p1098
(dp1099
g3
S'0.7'
p1100
sS'MainTriggerCsI'
p1101
I49327
sg6
S'3162.277'
p1102
sS'MainTriggerCZTSide'
p1103
I1328
sS'MainVetoSide'
p1104
I8112
sS'Not triggered events'
p1105
I40109
sS'Number of triggered events'
p1106
I51292
sS'Number of vetoed events'
p1107
I8599
sS'MainTriggerCZT'
p1108
I637
sS'MainVetoTop'
p1109
I487
ssS'./FarFieldPointSource_501.187MeV_Cos1.0.inc1.id1.tra'
p1110
(dp1111
g3
S'1.0'
p1112
sS'MainTriggerCsI'
p1113
I59073
sg6
S'501.187'
p1114
sS'MainTriggerCZTSide'
p1115
I1987
sS'MainVetoSide'
p1116
I6379
sS'Not triggered events'
p1117
I31036
sS'Number of triggered events'
p1118
I62180
sS'Number of vetoed events'
p1119
I6784
sS'MainTriggerCZT'
p1120
I1120
sS'MainVetoTop'
p1121
I405
ssS'./FarFieldPointSource_1584.893MeV_Cos0.9.inc1.id1.tra'
p1122
(dp1123
g3
S'0.9'
p1124
sS'MainTriggerCsI'
p1125
I56351
sg6
S'1584.893'
p1126
sS'MainTriggerCZTSide'
p1127
I1413
sS'MainVetoSide'
p1128
I4343
sS'Not triggered events'
p1129
I37153
sS'Number of triggered events'
p1130
I58200
sS'Number of vetoed events'
p1131
I4647
sS'MainTriggerCZT'
p1132
I436
sS'MainVetoTop'
p1133
I304
ssS'./FarFieldPointSource_100.000MeV_Cos0.8.inc1.id1.tra'
p1134
(dp1135
g3
S'0.8'
p1136
sS'MainTriggerCsI'
p1137
I39247
sg6
S'100.000'
p1138
sS'MainTriggerCZTSide'
p1139
I16080
sS'MainVetoSide'
p1140
I8727
sS'Not triggered events'
p1141
I28462
sS'Number of triggered events'
p1142
I61762
sS'Number of vetoed events'
p1143
I9776
sS'MainTriggerCZT'
p1144
I6435
sS'MainVetoTop'
p1145
I1049
ssS'./FarFieldPointSource_5.011MeV_Cos0.7.inc1.id1.tra'
p1146
(dp1147
g3
S'0.7'
p1148
sS'MainTriggerCsI'
p1149
I12655
sg6
S'5.011'
p1150
sS'MainTriggerCZTSide'
p1151
I35936
sS'MainVetoSide'
p1152
I3878
sS'Not triggered events'
p1153
I5604
sS'Number of triggered events'
p1154
I87650
sS'Number of vetoed events'
p1155
I6746
sS'MainTriggerCZT'
p1156
I39059
sS'MainVetoTop'
p1157
I2868
ssS'./FarFieldPointSource_15.848MeV_Cos1.0.inc1.id1.tra'
p1158
(dp1159
g3
S'1.0'
p1160
sS'MainTriggerCsI'
p1161
I23383
sg6
S'15.848'
p1162
sS'MainTriggerCZTSide'
p1163
I20547
sS'MainVetoSide'
p1164
I4877
sS'Not triggered events'
p1165
I19067
sS'Number of triggered events'
p1166
I71656
sS'Number of vetoed events'
p1167
I9277
sS'MainTriggerCZT'
p1168
I27726
sS'MainVetoTop'
p1169
I4400
ssS'./FarFieldPointSource_1000.000MeV_Cos1.0.inc1.id1.tra'
p1170
(dp1171
g3
S'1.0'
p1172
sS'MainTriggerCsI'
p1173
I61547
sg6
S'1000.000'
p1174
sS'MainTriggerCZTSide'
p1175
I806
sS'MainVetoSide'
p1176
I4332
sS'Not triggered events'
p1177
I32880
sS'Number of triggered events'
p1178
I62540
sS'Number of vetoed events'
p1179
I4580
sS'MainTriggerCZT'
p1180
I187
sS'MainVetoTop'
p1181
I248
ssS'./FarFieldPointSource_0.158MeV_Cos0.7.inc1.id1.tra'
p1182
(dp1183
g3
S'0.7'
p1184
sg6
S'0.158'
p1185
sS'MainTriggerCZTSide'
p1186
I36378
sS'Not triggered events'
p1187
I56408
sS'Number of triggered events'
p1188
I43592
sS'Number of vetoed events'
p1189
I0
sS'MainTriggerCZT'
p1190
I7214
ssS'./FarFieldPointSource_3162.277MeV_Cos0.9.inc1.id1.tra'
p1191
(dp1192
g3
S'0.9'
p1193
sS'MainTriggerCsI'
p1194
I57192
sg6
S'3162.277'
p1195
sS'MainTriggerCZTSide'
p1196
I1112
sS'MainVetoSide'
p1197
I3515
sS'Not triggered events'
p1198
I37681
sS'Number of triggered events'
p1199
I58491
sS'Number of vetoed events'
p1200
I3828
sS'MainTriggerCZT'
p1201
I187
sS'MainVetoTop'
p1202
I313
ssS'./FarFieldPointSource_100.000MeV_Cos0.5.inc1.id1.tra'
p1203
(dp1204
g3
S'0.5'
p1205
sS'MainTriggerCsI'
p1206
I39203
sg6
S'100.000'
p1207
sS'MainTriggerCZTSide'
p1208
I14521
sS'MainVetoSide'
p1209
I9915
sS'Not triggered events'
p1210
I28716
sS'Number of triggered events'
p1211
I60314
sS'Number of vetoed events'
p1212
I10970
sS'MainTriggerCZT'
p1213
I6590
sS'MainVetoTop'
p1214
I1055
ssS'./FarFieldPointSource_501.187MeV_Cos0.5.inc1.id1.tra'
p1215
(dp1216
g3
S'0.5'
p1217
sS'MainTriggerCsI'
p1218
I45417
sg6
S'501.187'
p1219
sS'MainTriggerCZTSide'
p1220
I2392
sS'MainVetoSide'
p1221
I9886
sS'Not triggered events'
p1222
I39657
sS'Number of triggered events'
p1223
I49962
sS'Number of vetoed events'
p1224
I10381
sS'MainTriggerCZT'
p1225
I2153
sS'MainVetoTop'
p1226
I495
ssS'./FarFieldPointSource_31.622MeV_Cos1.0.inc1.id1.tra'
p1227
(dp1228
g3
S'1.0'
p1229
sS'MainTriggerCsI'
p1230
I34470
sg6
S'31.622'
p1231
sS'MainTriggerCZTSide'
p1232
I17938
sS'MainVetoSide'
p1233
I5743
sS'Not triggered events'
p1234
I25647
sS'Number of triggered events'
p1235
I66171
sS'Number of vetoed events'
p1236
I8182
sS'MainTriggerCZT'
p1237
I13763
sS'MainVetoTop'
p1238
I2439
ssS'./FarFieldPointSource_100.000MeV_Cos0.6.inc1.id1.tra'
p1239
(dp1240
g3
S'0.6'
p1241
sS'MainTriggerCsI'
p1242
I39724
sg6
S'100.000'
p1243
sS'MainTriggerCZTSide'
p1244
I15060
sS'MainVetoSide'
p1245
I9457
sS'Not triggered events'
p1246
I28566
sS'Number of triggered events'
p1247
I60985
sS'Number of vetoed events'
p1248
I10449
sS'MainTriggerCZT'
p1249
I6201
sS'MainVetoTop'
p1250
I992
ssS'./FarFieldPointSource_0.316MeV_Cos1.0.inc1.id1.tra'
p1251
(dp1252
g3
S'1.0'
p1253
sS'MainTriggerCsI'
p1254
I11
sg6
S'0.316'
p1255
sS'MainTriggerCZTSide'
p1256
I58229
sS'Not triggered events'
p1257
I22440
sS'Number of triggered events'
p1258
I77560
sS'Number of vetoed events'
p1259
I0
sS'MainTriggerCZT'
p1260
I19320
ssS'./FarFieldPointSource_5.011MeV_Cos0.6.inc1.id1.tra'
p1261
(dp1262
g3
S'0.6'
p1263
sS'MainTriggerCsI'
p1264
I11203
sg6
S'5.011'
p1265
sS'MainTriggerCZTSide'
p1266
I37244
sS'MainVetoSide'
p1267
I4134
sS'Not triggered events'
p1268
I5406
sS'Number of triggered events'
p1269
I87772
sS'Number of vetoed events'
p1270
I6822
sS'MainTriggerCZT'
p1271
I39325
sS'MainVetoTop'
p1272
I2688
ssS'./FarFieldPointSource_1.584MeV_Cos0.5.inc1.id1.tra'
p1273
(dp1274
g3
S'0.5'
p1275
sS'MainTriggerCsI'
p1276
I4984
sg6
S'1.584'
p1277
sS'MainTriggerCZTSide'
p1278
I48327
sS'MainVetoSide'
p1279
I2653
sS'Not triggered events'
p1280
I6981
sS'Number of triggered events'
p1281
I88455
sS'Number of vetoed events'
p1282
I4564
sS'MainTriggerCZT'
p1283
I35144
sS'MainVetoTop'
p1284
I1911
ssS'./FarFieldPointSource_3162.277MeV_Cos0.6.inc1.id1.tra'
p1285
(dp1286
g3
S'0.6'
p1287
sS'MainTriggerCsI'
p1288
I45893
sg6
S'3162.277'
p1289
sS'MainTriggerCZTSide'
p1290
I1356
sS'MainVetoSide'
p1291
I9368
sS'Not triggered events'
p1292
I42110
sS'Number of triggered events'
p1293
I47966
sS'Number of vetoed events'
p1294
I9924
sS'MainTriggerCZT'
p1295
I717
sS'MainVetoTop'
p1296
I556
ssS'./FarFieldPointSource_0.158MeV_Cos0.6.inc1.id1.tra'
p1297
(dp1298
g3
S'0.6'
p1299
sg6
S'0.158'
p1300
sS'MainTriggerCZTSide'
p1301
I36727
sS'Not triggered events'
p1302
I55967
sS'Number of triggered events'
p1303
I44033
sS'Number of vetoed events'
p1304
I0
sS'MainTriggerCZT'
p1305
I7306
ssS'./FarFieldPointSource_100.000MeV_Cos1.0.inc1.id1.tra'
p1306
(dp1307
g3
S'1.0'
p1308
sS'MainTriggerCsI'
p1309
I45387
sg6
S'100.000'
p1310
sS'MainTriggerCZTSide'
p1311
I14183
sS'MainVetoSide'
p1312
I8177
sS'Not triggered events'
p1313
I24670
sS'Number of triggered events'
p1314
I65525
sS'Number of vetoed events'
p1315
I9805
sS'MainTriggerCZT'
p1316
I5955
sS'MainVetoTop'
p1317
I1628
ssS'./FarFieldPointSource_3.162MeV_Cos0.8.inc1.id1.tra'
p1318
(dp1319
g3
S'0.8'
p1320
sS'MainTriggerCsI'
p1321
I12797
sg6
S'3.162'
p1322
sS'MainTriggerCZTSide'
p1323
I37078
sS'MainVetoSide'
p1324
I3113
sS'Not triggered events'
p1325
I5658
sS'Number of triggered events'
p1326
I88740
sS'Number of vetoed events'
p1327
I5602
sS'MainTriggerCZT'
p1328
I38865
sS'MainVetoTop'
p1329
I2489
ssS'./FarFieldPointSource_5.011MeV_Cos0.8.inc1.id1.tra'
p1330
(dp1331
g3
S'0.8'
p1332
sS'MainTriggerCsI'
p1333
I14300
sg6
S'5.011'
p1334
sS'MainTriggerCZTSide'
p1335
I34154
sS'MainVetoSide'
p1336
I3572
sS'Not triggered events'
p1337
I5439
sS'Number of triggered events'
p1338
I87778
sS'Number of vetoed events'
p1339
I6783
sS'MainTriggerCZT'
p1340
I39324
sS'MainVetoTop'
p1341
I3211
ssS'./FarFieldPointSource_3.162MeV_Cos0.6.inc1.id1.tra'
p1342
(dp1343
g3
S'0.6'
p1344
sS'MainTriggerCsI'
p1345
I10039
sg6
S'3.162'
p1346
sS'MainTriggerCZTSide'
p1347
I40170
sS'MainVetoSide'
p1348
I3477
sS'Not triggered events'
p1349
I5632
sS'Number of triggered events'
p1350
I88566
sS'Number of vetoed events'
p1351
I5802
sS'MainTriggerCZT'
p1352
I38357
sS'MainVetoTop'
p1353
I2325
ssS'./FarFieldPointSource_31.622MeV_Cos0.7.inc1.id1.tra'
p1354
(dp1355
g3
S'0.7'
p1356
sS'MainTriggerCsI'
p1357
I23659
sg6
S'31.622'
p1358
sS'MainTriggerCZTSide'
p1359
I22111
sS'MainVetoSide'
p1360
I7176
sS'Not triggered events'
p1361
I29893
sS'Number of triggered events'
p1362
I61396
sS'Number of vetoed events'
p1363
I8711
sS'MainTriggerCZT'
p1364
I15626
sS'MainVetoTop'
p1365
I1535
ssS'./FarFieldPointSource_158.489MeV_Cos0.8.inc1.id1.tra'
p1366
(dp1367
g3
S'0.8'
p1368
sS'MainTriggerCsI'
p1369
I43700
sg6
S'158.489'
p1370
sS'MainTriggerCZTSide'
p1371
I13060
sS'MainVetoSide'
p1372
I10432
sS'Not triggered events'
p1373
I27455
sS'Number of triggered events'
p1374
I61137
sS'Number of vetoed events'
p1375
I11408
sS'MainTriggerCZT'
p1376
I4377
sS'MainVetoTop'
p1377
I976
ssS'./FarFieldPointSource_10.000MeV_Cos1.0.inc1.id1.tra'
p1378
(dp1379
g3
S'1.0'
p1380
sS'MainTriggerCsI'
p1381
I20070
sg6
S'10.000'
p1382
sS'MainTriggerCZTSide'
p1383
I24796
sS'MainVetoSide'
p1384
I3683
sS'Not triggered events'
p1385
I6871
sS'Number of triggered events'
p1386
I84038
sS'Number of vetoed events'
p1387
I9091
sS'MainTriggerCZT'
p1388
I39172
sS'MainVetoTop'
p1389
I5408
ssS'./FarFieldPointSource_15.848MeV_Cos0.9.inc1.id1.tra'
p1390
(dp1391
g3
S'0.9'
p1392
sS'MainTriggerCsI'
p1393
I19676
sg6
S'15.848'
p1394
sS'MainTriggerCZTSide'
p1395
I22966
sS'MainVetoSide'
p1396
I6780
sS'Not triggered events'
p1397
I19849
sS'Number of triggered events'
p1398
I69670
sS'Number of vetoed events'
p1399
I10481
sS'MainTriggerCZT'
p1400
I27028
sS'MainVetoTop'
p1401
I3701
ss.