(dp0
S'TraFiles/FarFieldPointSource_50.118MeV_Cos0.8.inc1.id1.tra'
p1
(dp2
S'Cos'
p3
S'0.8'
p4
sS'MainTriggerCsI'
p5
I42724
sS'MainTriggerSi'
p6
I1329
sS'MeV'
p7
S'50.118'
p8
sS'MainTriggerCZTSide'
p9
I18388
sS'MainVetoSide'
p10
I12083
sS'Not triggered events'
p11
I5628
sS'Number of triggered events'
p12
I77259
sS'Number of vetoed events'
p13
I17113
sS'MainTriggerCZT'
p14
I14818
sS'MainVetoTop'
p15
I5030
ssS'TraFiles/FarFieldPointSource_1584.893MeV_Cos0.9.inc1.id1.tra'
p16
(dp17
g3
S'0.9'
p18
sS'MainTriggerCsI'
p19
I53233
sS'MainTriggerSi'
p20
I272
sg7
S'1584.893'
p21
sS'MainTriggerCZTSide'
p22
I9156
sS'MainVetoSide'
p23
I27705
sS'Not triggered events'
p24
I3151
sS'Number of triggered events'
p25
I63336
sS'Number of vetoed events'
p26
I33513
sS'MainTriggerCZT'
p27
I675
sS'MainVetoTop'
p28
I5808
ssS'TraFiles/FarFieldPointSource_316.227MeV_Cos0.9.inc1.id1.tra'
p29
(dp30
g3
S'0.9'
p31
sS'MainTriggerCsI'
p32
I57214
sS'MainTriggerSi'
p33
I360
sg7
S'316.227'
p34
sS'MainTriggerCZTSide'
p35
I11378
sS'MainVetoSide'
p36
I19904
sS'Not triggered events'
p37
I4509
sS'Number of triggered events'
p38
I70967
sS'Number of vetoed events'
p39
I24524
sS'MainTriggerCZT'
p40
I2015
sS'MainVetoTop'
p41
I4620
ssS'TraFiles/FarFieldPointSource_158.489MeV_Cos0.9.inc1.id1.tra'
p42
(dp43
g3
S'0.9'
p44
sS'MainTriggerCsI'
p45
I55969
sS'MainTriggerSi'
p46
I391
sg7
S'158.489'
p47
sS'MainTriggerCZTSide'
p48
I13523
sS'MainVetoSide'
p49
I15750
sS'Not triggered events'
p50
I5154
sS'Number of triggered events'
p51
I74368
sS'Number of vetoed events'
p52
I20478
sS'MainTriggerCZT'
p53
I4485
sS'MainVetoTop'
p54
I4728
ssS'TraFiles/FarFieldPointSource_5011.872MeV_Cos0.7.inc1.id1.tra'
p55
(dp56
g3
S'0.7'
p57
sS'MainTriggerCsI'
p58
I62057
sS'MainTriggerSi'
p59
I693
sg7
S'5011.872'
p60
sS'MainTriggerCZTSide'
p61
I3864
sS'MainVetoSide'
p62
I25260
sS'Not triggered events'
p63
I2001
sS'Number of triggered events'
p64
I67488
sS'Number of vetoed events'
p65
I30511
sS'MainTriggerCZT'
p66
I874
sS'MainVetoTop'
p67
I5251
ssS'TraFiles/FarFieldPointSource_0.158MeV_Cos0.7.inc1.id1.tra'
p68
(dp69
g3
S'0.7'
p70
sS'MainTriggerSi'
p71
I32337
sg7
S'0.158'
p72
sS'MainTriggerCZTSide'
p73
I7634
sS'Not triggered events'
p74
I58011
sS'Number of triggered events'
p75
I41989
sS'Number of vetoed events'
p76
I0
sS'MainTriggerCZT'
p77
I2018
ssS'TraFiles/FarFieldPointSource_501.187MeV_Cos0.7.inc1.id1.tra'
p78
(dp79
g3
S'0.7'
p80
sS'MainTriggerCsI'
p81
I53458
sS'MainTriggerSi'
p82
I333
sg7
S'501.187'
p83
sS'MainTriggerCZTSide'
p84
I8885
sS'MainVetoSide'
p85
I27528
sS'Not triggered events'
p86
I3102
sS'Number of triggered events'
p87
I64407
sS'Number of vetoed events'
p88
I32491
sS'MainTriggerCZT'
p89
I1731
sS'MainVetoTop'
p90
I4963
ssS'TraFiles/FarFieldPointSource_0.316MeV_Cos0.7.inc1.id1.tra'
p91
(dp92
g3
S'0.7'
p93
sS'MainTriggerCsI'
p94
I16
sS'MainTriggerSi'
p95
I40650
sg7
S'0.316'
p96
sS'MainTriggerCZTSide'
p97
I16874
sS'Not triggered events'
p98
I34785
sS'Number of triggered events'
p99
I65215
sS'Number of vetoed events'
p100
I0
sS'MainTriggerCZT'
p101
I7675
ssS'TraFiles/FarFieldPointSource_5.011MeV_Cos0.9.inc1.id1.tra'
p102
(dp103
g3
S'0.9'
p104
sS'MainTriggerCsI'
p105
I10115
sS'MainTriggerSi'
p106
I31090
sg7
S'5.011'
p107
sS'MainTriggerCZTSide'
p108
I16983
sS'MainVetoSide'
p109
I3072
sS'Not triggered events'
p110
I5734
sS'Number of triggered events'
p111
I83256
sS'Number of vetoed events'
p112
I11010
sS'MainTriggerCZT'
p113
I25068
sS'MainVetoTop'
p114
I7938
ssS'TraFiles/FarFieldPointSource_50.118MeV_Cos0.6.inc1.id1.tra'
p115
(dp116
g3
S'0.6'
p117
sS'MainTriggerCsI'
p118
I35749
sS'MainTriggerSi'
p119
I1925
sg7
S'50.118'
p120
sS'MainTriggerCZTSide'
p121
I18909
sS'MainVetoSide'
p122
I15718
sS'Not triggered events'
p123
I5235
sS'Number of triggered events'
p124
I74051
sS'Number of vetoed events'
p125
I20714
sS'MainTriggerCZT'
p126
I17468
sS'MainVetoTop'
p127
I4996
ssS'TraFiles/FarFieldPointSource_3.162MeV_Cos1.0.inc1.id1.tra'
p128
(dp129
g3
S'1.0'
p130
sS'MainTriggerCsI'
p131
I9925
sS'MainTriggerSi'
p132
I37460
sg7
S'3.162'
p133
sS'MainTriggerCZTSide'
p134
I15059
sS'MainVetoSide'
p135
I1973
sS'Not triggered events'
p136
I5514
sS'Number of triggered events'
p137
I86394
sS'Number of vetoed events'
p138
I8092
sS'MainTriggerCZT'
p139
I23950
sS'MainVetoTop'
p140
I6119
ssS'TraFiles/FarFieldPointSource_1000.000MeV_Cos0.8.inc1.id1.tra'
p141
(dp142
g3
S'0.8'
p143
sS'MainTriggerCsI'
p144
I53243
sS'MainTriggerSi'
p145
I326
sg7
S'1000.000'
p146
sS'MainTriggerCZTSide'
p147
I8782
sS'MainVetoSide'
p148
I28127
sS'Not triggered events'
p149
I3019
sS'Number of triggered events'
p150
I63410
sS'Number of vetoed events'
p151
I33571
sS'MainTriggerCZT'
p152
I1059
sS'MainVetoTop'
p153
I5444
ssS'TraFiles/FarFieldPointSource_316.227MeV_Cos0.5.inc1.id1.tra'
p154
(dp155
g3
S'0.5'
p156
sS'MainTriggerCsI'
p157
I48932
sS'MainTriggerSi'
p158
I240
sg7
S'316.227'
p159
sS'MainTriggerCZTSide'
p160
I7889
sS'MainVetoSide'
p161
I32545
sS'Not triggered events'
p162
I2677
sS'Number of triggered events'
p163
I59926
sS'Number of vetoed events'
p164
I37397
sS'MainTriggerCZT'
p165
I2865
sS'MainVetoTop'
p166
I4852
ssS'TraFiles/FarFieldPointSource_5011.872MeV_Cos0.5.inc1.id1.tra'
p167
(dp168
g3
S'0.5'
p169
sS'MainTriggerCsI'
p170
I52781
sS'MainTriggerSi'
p171
I2343
sg7
S'5011.872'
p172
sS'MainTriggerCZTSide'
p173
I5117
sS'MainVetoSide'
p174
I30536
sS'Not triggered events'
p175
I2430
sS'Number of triggered events'
p176
I61112
sS'Number of vetoed events'
p177
I36458
sS'MainTriggerCZT'
p178
I871
sS'MainVetoTop'
p179
I5922
ssS'TraFiles/FarFieldPointSource_31.622MeV_Cos0.7.inc1.id1.tra'
p180
(dp181
g3
S'0.7'
p182
sS'MainTriggerCsI'
p183
I28370
sS'MainTriggerSi'
p184
I4184
sg7
S'31.622'
p185
sS'MainTriggerCZTSide'
p186
I20627
sS'MainVetoSide'
p187
I10989
sS'Not triggered events'
p188
I5949
sS'Number of triggered events'
p189
I77278
sS'Number of vetoed events'
p190
I16773
sS'MainTriggerCZT'
p191
I24097
sS'MainVetoTop'
p192
I5784
ssS'TraFiles/FarFieldPointSource_31.622MeV_Cos0.8.inc1.id1.tra'
p193
(dp194
g3
S'0.8'
p195
sS'MainTriggerCsI'
p196
I31963
sS'MainTriggerSi'
p197
I3625
sg7
S'31.622'
p198
sS'MainTriggerCZTSide'
p199
I19962
sS'MainVetoSide'
p200
I9452
sS'Not triggered events'
p201
I5986
sS'Number of triggered events'
p202
I78913
sS'Number of vetoed events'
p203
I15101
sS'MainTriggerCZT'
p204
I23363
sS'MainVetoTop'
p205
I5649
ssS'TraFiles/FarFieldPointSource_1.584MeV_Cos0.5.inc1.id1.tra'
p206
(dp207
g3
S'0.5'
p208
sS'MainTriggerCsI'
p209
I2295
sS'MainTriggerSi'
p210
I48509
sg7
S'1.584'
p211
sS'MainTriggerCZTSide'
p212
I18828
sS'MainVetoSide'
p213
I2825
sS'Not triggered events'
p214
I8069
sS'Number of triggered events'
p215
I86267
sS'Number of vetoed events'
p216
I5664
sS'MainTriggerCZT'
p217
I16635
sS'MainVetoTop'
p218
I2839
ssS'TraFiles/FarFieldPointSource_100.000MeV_Cos1.0.inc1.id1.tra'
p219
(dp220
g3
S'1.0'
p221
sS'MainTriggerCsI'
p222
I56205
sS'MainTriggerSi'
p223
I351
sg7
S'100.000'
p224
sS'MainTriggerCZTSide'
p225
I14609
sS'MainVetoSide'
p226
I11107
sS'Not triggered events'
p227
I5897
sS'Number of triggered events'
p228
I77548
sS'Number of vetoed events'
p229
I16555
sS'MainTriggerCZT'
p230
I6383
sS'MainVetoTop'
p231
I5448
ssS'TraFiles/FarFieldPointSource_3162.277MeV_Cos0.7.inc1.id1.tra'
p232
(dp233
g3
S'0.7'
p234
sS'MainTriggerCsI'
p235
I57356
sS'MainTriggerSi'
p236
I538
sg7
S'3162.277'
p237
sS'MainTriggerCZTSide'
p238
I4694
sS'MainVetoSide'
p239
I28520
sS'Not triggered events'
p240
I1859
sS'Number of triggered events'
p241
I63481
sS'Number of vetoed events'
p242
I34660
sS'MainTriggerCZT'
p243
I893
sS'MainVetoTop'
p244
I6140
ssS'TraFiles/FarFieldPointSource_0.316MeV_Cos0.9.inc1.id1.tra'
p245
(dp246
g3
S'0.9'
p247
sS'MainTriggerCsI'
p248
I33
sS'MainTriggerSi'
p249
I40573
sg7
S'0.316'
p250
sS'MainTriggerCZTSide'
p251
I17593
sS'Not triggered events'
p252
I33751
sS'Number of triggered events'
p253
I66249
sS'Number of vetoed events'
p254
I0
sS'MainTriggerCZT'
p255
I8050
ssS'TraFiles/FarFieldPointSource_50.118MeV_Cos0.9.inc1.id1.tra'
p256
(dp257
g3
S'0.9'
p258
sS'MainTriggerCsI'
p259
I46356
sS'MainTriggerSi'
p260
I1224
sg7
S'50.118'
p261
sS'MainTriggerCZTSide'
p262
I17705
sS'MainVetoSide'
p263
I9994
sS'Not triggered events'
p264
I6082
sS'Number of triggered events'
p265
I78732
sS'Number of vetoed events'
p266
I15186
sS'MainTriggerCZT'
p267
I13447
sS'MainVetoTop'
p268
I5192
ssS'TraFiles/FarFieldPointSource_31.622MeV_Cos1.0.inc1.id1.tra'
p269
(dp270
g3
S'1.0'
p271
sS'MainTriggerCsI'
p272
I40282
sS'MainTriggerSi'
p273
I2739
sg7
S'31.622'
p274
sS'MainTriggerCZTSide'
p275
I17240
sS'MainVetoSide'
p276
I5884
sS'Not triggered events'
p277
I6856
sS'Number of triggered events'
p278
I81004
sS'Number of vetoed events'
p279
I12140
sS'MainTriggerCZT'
p280
I20743
sS'MainVetoTop'
p281
I6256
ssS'TraFiles/FarFieldPointSource_100.000MeV_Cos0.9.inc1.id1.tra'
p282
(dp283
g3
S'0.9'
p284
sS'MainTriggerCsI'
p285
I54205
sS'MainTriggerSi'
p286
I494
sg7
S'100.000'
p287
sS'MainTriggerCZTSide'
p288
I15422
sS'MainVetoSide'
p289
I12941
sS'Not triggered events'
p290
I5522
sS'Number of triggered events'
p291
I76717
sS'Number of vetoed events'
p292
I17761
sS'MainTriggerCZT'
p293
I6596
sS'MainVetoTop'
p294
I4820
ssS'TraFiles/FarFieldPointSource_1.584MeV_Cos0.7.inc1.id1.tra'
p295
(dp296
g3
S'0.7'
p297
sS'MainTriggerCsI'
p298
I2931
sS'MainTriggerSi'
p299
I48597
sg7
S'1.584'
p300
sS'MainTriggerCZTSide'
p301
I18404
sS'MainVetoSide'
p302
I2671
sS'Not triggered events'
p303
I7997
sS'Number of triggered events'
p304
I86724
sS'Number of vetoed events'
p305
I5279
sS'MainTriggerCZT'
p306
I16792
sS'MainVetoTop'
p307
I2608
ssS'TraFiles/FarFieldPointSource_1584.893MeV_Cos1.0.inc1.id1.tra'
p308
(dp309
g3
S'1.0'
p310
sS'MainTriggerCsI'
p311
I53501
sS'MainTriggerSi'
p312
I146
sg7
S'1584.893'
p313
sS'MainTriggerCZTSide'
p314
I10861
sS'MainVetoSide'
p315
I25027
sS'Not triggered events'
p316
I3904
sS'Number of triggered events'
p317
I65003
sS'Number of vetoed events'
p318
I31093
sS'MainTriggerCZT'
p319
I495
sS'MainVetoTop'
p320
I6066
ssS'TraFiles/FarFieldPointSource_15.848MeV_Cos0.9.inc1.id1.tra'
p321
(dp322
g3
S'0.9'
p323
sS'MainTriggerCsI'
p324
I19759
sS'MainTriggerSi'
p325
I11043
sg7
S'15.848'
p326
sS'MainTriggerCZTSide'
p327
I20074
sS'MainVetoSide'
p328
I4635
sS'Not triggered events'
p329
I6686
sS'Number of triggered events'
p330
I81721
sS'Number of vetoed events'
p331
I11593
sS'MainTriggerCZT'
p332
I30845
sS'MainVetoTop'
p333
I6958
ssS'TraFiles/FarFieldPointSource_5.011MeV_Cos0.8.inc1.id1.tra'
p334
(dp335
g3
S'0.8'
p336
sS'MainTriggerCsI'
p337
I8791
sS'MainTriggerSi'
p338
I32835
sg7
S'5.011'
p339
sS'MainTriggerCZTSide'
p340
I17762
sS'MainVetoSide'
p341
I3378
sS'Not triggered events'
p342
I5847
sS'Number of triggered events'
p343
I83420
sS'Number of vetoed events'
p344
I10733
sS'MainTriggerCZT'
p345
I24032
sS'MainVetoTop'
p346
I7355
ssS'TraFiles/FarFieldPointSource_1.000MeV_Cos0.8.inc1.id1.tra'
p347
(dp348
g3
S'0.8'
p349
sS'MainTriggerCsI'
p350
I1310
sS'MainTriggerSi'
p351
I48977
sg7
S'1.000'
p352
sS'MainTriggerCZTSide'
p353
I19534
sS'MainVetoSide'
p354
I1662
sS'Not triggered events'
p355
I12595
sS'Number of triggered events'
p356
I84351
sS'Number of vetoed events'
p357
I3054
sS'MainTriggerCZT'
p358
I14530
sS'MainVetoTop'
p359
I1392
ssS'TraFiles/FarFieldPointSource_10.000MeV_Cos1.0.inc1.id1.tra'
p360
(dp361
g3
S'1.0'
p362
sS'MainTriggerCsI'
p363
I16300
sS'MainTriggerSi'
p364
I16955
sg7
S'10.000'
p365
sS'MainTriggerCZTSide'
p366
I17273
sS'MainVetoSide'
p367
I2835
sS'Not triggered events'
p368
I6649
sS'Number of triggered events'
p369
I82081
sS'Number of vetoed events'
p370
I11270
sS'MainTriggerCZT'
p371
I31553
sS'MainVetoTop'
p372
I8435
ssS'TraFiles/FarFieldPointSource_5011.872MeV_Cos0.9.inc1.id1.tra'
p373
(dp374
g3
S'0.9'
p375
sS'MainTriggerCsI'
p376
I61805
sS'MainTriggerSi'
p377
I306
sg7
S'5011.872'
p378
sS'MainTriggerCZTSide'
p379
I5723
sS'MainVetoSide'
p380
I23890
sS'Not triggered events'
p381
I2456
sS'Number of triggered events'
p382
I68385
sS'Number of vetoed events'
p383
I29159
sS'MainTriggerCZT'
p384
I551
sS'MainVetoTop'
p385
I5269
ssS'TraFiles/FarFieldPointSource_100.000MeV_Cos0.6.inc1.id1.tra'
p386
(dp387
g3
S'0.6'
p388
sS'MainTriggerCsI'
p389
I46891
sS'MainTriggerSi'
p390
I492
sg7
S'100.000'
p391
sS'MainTriggerCZTSide'
p392
I14603
sS'MainVetoSide'
p393
I20489
sS'Not triggered events'
p394
I4389
sS'Number of triggered events'
p395
I70746
sS'Number of vetoed events'
p396
I24865
sS'MainTriggerCZT'
p397
I8760
sS'MainVetoTop'
p398
I4376
ssS'TraFiles/FarFieldPointSource_316.227MeV_Cos0.6.inc1.id1.tra'
p399
(dp400
g3
S'0.6'
p401
sS'MainTriggerCsI'
p402
I51735
sS'MainTriggerSi'
p403
I272
sg7
S'316.227'
p404
sS'MainTriggerCZTSide'
p405
I9223
sS'MainVetoSide'
p406
I28410
sS'Not triggered events'
p407
I3053
sS'Number of triggered events'
p408
I63934
sS'Number of vetoed events'
p409
I33013
sS'MainTriggerCZT'
p410
I2704
sS'MainVetoTop'
p411
I4603
ssS'TraFiles/FarFieldPointSource_15.848MeV_Cos0.6.inc1.id1.tra'
p412
(dp413
g3
S'0.6'
p414
sS'MainTriggerCsI'
p415
I13380
sS'MainTriggerSi'
p416
I15537
sg7
S'15.848'
p417
sS'MainTriggerCZTSide'
p418
I22144
sS'MainVetoSide'
p419
I6558
sS'Not triggered events'
p420
I5857
sS'Number of triggered events'
p421
I80689
sS'Number of vetoed events'
p422
I13454
sS'MainTriggerCZT'
p423
I29628
sS'MainVetoTop'
p424
I6896
ssS'TraFiles/FarFieldPointSource_50.118MeV_Cos0.7.inc1.id1.tra'
p425
(dp426
g3
S'0.7'
p427
sS'MainTriggerCsI'
p428
I39118
sS'MainTriggerSi'
p429
I1561
sg7
S'50.118'
p430
sS'MainTriggerCZTSide'
p431
I18746
sS'MainVetoSide'
p432
I14098
sS'Not triggered events'
p433
I5351
sS'Number of triggered events'
p434
I75593
sS'Number of vetoed events'
p435
I19056
sS'MainTriggerCZT'
p436
I16168
sS'MainVetoTop'
p437
I4958
ssS'TraFiles/FarFieldPointSource_5.011MeV_Cos0.6.inc1.id1.tra'
p438
(dp439
g3
S'0.6'
p440
sS'MainTriggerCsI'
p441
I6603
sS'MainTriggerSi'
p442
I35653
sg7
S'5.011'
p443
sS'MainTriggerCZTSide'
p444
I18771
sS'MainVetoSide'
p445
I3833
sS'Not triggered events'
p446
I5560
sS'Number of triggered events'
p447
I83987
sS'Number of vetoed events'
p448
I10453
sS'MainTriggerCZT'
p449
I22960
sS'MainVetoTop'
p450
I6620
ssS'TraFiles/FarFieldPointSource_0.158MeV_Cos1.0.inc1.id1.tra'
p451
(dp452
g3
S'1.0'
p453
sS'MainTriggerCsI'
p454
I1
sS'MainTriggerSi'
p455
I34566
sg7
S'0.158'
p456
sS'MainTriggerCZTSide'
p457
I9488
sS'Not triggered events'
p458
I53257
sS'Number of triggered events'
p459
I46743
sS'Number of vetoed events'
p460
I0
sS'MainTriggerCZT'
p461
I2688
ssS'TraFiles/FarFieldPointSource_1.000MeV_Cos0.5.inc1.id1.tra'
p462
(dp463
g3
S'0.5'
p464
sS'MainTriggerCsI'
p465
I1067
sS'MainTriggerSi'
p466
I48125
sg7
S'1.000'
p467
sS'MainTriggerCZTSide'
p468
I20418
sS'MainVetoSide'
p469
I1502
sS'Not triggered events'
p470
I12656
sS'Number of triggered events'
p471
I84098
sS'Number of vetoed events'
p472
I3246
sS'MainTriggerCZT'
p473
I14488
sS'MainVetoTop'
p474
I1744
ssS'TraFiles/FarFieldPointSource_10.000MeV_Cos0.9.inc1.id1.tra'
p475
(dp476
g3
S'0.9'
p477
sS'MainTriggerCsI'
p478
I14064
sS'MainTriggerSi'
p479
I18918
sg7
S'10.000'
p480
sS'MainTriggerCZTSide'
p481
I18929
sS'MainVetoSide'
p482
I3513
sS'Not triggered events'
p483
I6405
sS'Number of triggered events'
p484
I81972
sS'Number of vetoed events'
p485
I11623
sS'MainTriggerCZT'
p486
I30061
sS'MainVetoTop'
p487
I8110
ssS'TraFiles/FarFieldPointSource_1.000MeV_Cos1.0.inc1.id1.tra'
p488
(dp489
g3
S'1.0'
p490
sS'MainTriggerCsI'
p491
I1592
sS'MainTriggerSi'
p492
I51187
sg7
S'1.000'
p493
sS'MainTriggerCZTSide'
p494
I18537
sS'MainVetoSide'
p495
I745
sS'Not triggered events'
p496
I10798
sS'Number of triggered events'
p497
I87405
sS'Number of vetoed events'
p498
I1797
sS'MainTriggerCZT'
p499
I16089
sS'MainVetoTop'
p500
I1052
ssS'TraFiles/FarFieldPointSource_3162.277MeV_Cos1.0.inc1.id1.tra'
p501
(dp502
g3
S'1.0'
p503
sS'MainTriggerCsI'
p504
I54304
sS'MainTriggerSi'
p505
I160
sg7
S'3162.277'
p506
sS'MainTriggerCZTSide'
p507
I9230
sS'MainVetoSide'
p508
I25923
sS'Not triggered events'
p509
I3142
sS'Number of triggered events'
p510
I63999
sS'Number of vetoed events'
p511
I32859
sS'MainTriggerCZT'
p512
I305
sS'MainVetoTop'
p513
I6936
ssS'TraFiles/FarFieldPointSource_50.118MeV_Cos0.5.inc1.id1.tra'
p514
(dp515
g3
S'0.5'
p516
sS'MainTriggerCsI'
p517
I31798
sS'MainTriggerSi'
p518
I2253
sg7
S'50.118'
p519
sS'MainTriggerCZTSide'
p520
I18844
sS'MainVetoSide'
p521
I18069
sS'Not triggered events'
p522
I4820
sS'Number of triggered events'
p523
I72003
sS'Number of vetoed events'
p524
I23177
sS'MainTriggerCZT'
p525
I19108
sS'MainVetoTop'
p526
I5108
ssS'TraFiles/FarFieldPointSource_316.227MeV_Cos1.0.inc1.id1.tra'
p527
(dp528
g3
S'1.0'
p529
sS'MainTriggerCsI'
p530
I58557
sS'MainTriggerSi'
p531
I170
sg7
S'316.227'
p532
sS'MainTriggerCZTSide'
p533
I11449
sS'MainVetoSide'
p534
I17949
sS'Not triggered events'
p535
I4953
sS'Number of triggered events'
p536
I71970
sS'Number of vetoed events'
p537
I23077
sS'MainTriggerCZT'
p538
I1794
sS'MainVetoTop'
p539
I5128
ssS'TraFiles/FarFieldPointSource_158.489MeV_Cos0.8.inc1.id1.tra'
p540
(dp541
g3
S'0.8'
p542
sS'MainTriggerCsI'
p543
I54415
sS'MainTriggerSi'
p544
I403
sg7
S'158.489'
p545
sS'MainTriggerCZTSide'
p546
I13108
sS'MainVetoSide'
p547
I18032
sS'Not triggered events'
p548
I4735
sS'Number of triggered events'
p549
I72799
sS'Number of vetoed events'
p550
I22466
sS'MainTriggerCZT'
p551
I4873
sS'MainVetoTop'
p552
I4434
ssS'TraFiles/FarFieldPointSource_1.584MeV_Cos0.6.inc1.id1.tra'
p553
(dp554
g3
S'0.6'
p555
sS'MainTriggerCsI'
p556
I2651
sS'MainTriggerSi'
p557
I48711
sg7
S'1.584'
p558
sS'MainTriggerCZTSide'
p559
I18416
sS'MainVetoSide'
p560
I2744
sS'Not triggered events'
p561
I8255
sS'Number of triggered events'
p562
I86268
sS'Number of vetoed events'
p563
I5477
sS'MainTriggerCZT'
p564
I16490
sS'MainVetoTop'
p565
I2733
ssS'TraFiles/FarFieldPointSource_3.162MeV_Cos0.9.inc1.id1.tra'
p566
(dp567
g3
S'0.9'
p568
sS'MainTriggerCsI'
p569
I8324
sS'MainTriggerSi'
p570
I38571
sg7
S'3.162'
p571
sS'MainTriggerCZTSide'
p572
I16494
sS'MainVetoSide'
p573
I2913
sS'Not triggered events'
p574
I5910
sS'Number of triggered events'
p575
I85443
sS'Number of vetoed events'
p576
I8647
sS'MainTriggerCZT'
p577
I22054
sS'MainVetoTop'
p578
I5734
ssS'TraFiles/FarFieldPointSource_158.489MeV_Cos0.7.inc1.id1.tra'
p579
(dp580
g3
S'0.7'
p581
sS'MainTriggerCsI'
p582
I52673
sS'MainTriggerSi'
p583
I396
sg7
S'158.489'
p584
sS'MainTriggerCZTSide'
p585
I12692
sS'MainVetoSide'
p586
I20496
sS'Not triggered events'
p587
I4288
sS'Number of triggered events'
p588
I70913
sS'Number of vetoed events'
p589
I24799
sS'MainTriggerCZT'
p590
I5152
sS'MainVetoTop'
p591
I4303
ssS'TraFiles/FarFieldPointSource_3.162MeV_Cos0.6.inc1.id1.tra'
p592
(dp593
g3
S'0.6'
p594
sS'MainTriggerCsI'
p595
I5283
sS'MainTriggerSi'
p596
I42348
sg7
S'3.162'
p597
sS'MainTriggerCZTSide'
p598
I17983
sS'MainVetoSide'
p599
I3593
sS'Not triggered events'
p600
I5814
sS'Number of triggered events'
p601
I85650
sS'Number of vetoed events'
p602
I8536
sS'MainTriggerCZT'
p603
I20036
sS'MainVetoTop'
p604
I4943
ssS'TraFiles/FarFieldPointSource_1584.893MeV_Cos0.7.inc1.id1.tra'
p605
(dp606
g3
S'0.7'
p607
sS'MainTriggerCsI'
p608
I49847
sS'MainTriggerSi'
p609
I393
sg7
S'1584.893'
p610
sS'MainTriggerCZTSide'
p611
I6298
sS'MainVetoSide'
p612
I33063
sS'Not triggered events'
p613
I2231
sS'Number of triggered events'
p614
I57628
sS'Number of vetoed events'
p615
I40141
sS'MainTriggerCZT'
p616
I1090
sS'MainVetoTop'
p617
I7078
ssS'TraFiles/FarFieldPointSource_0.501MeV_Cos1.0.inc1.id1.tra'
p618
(dp619
g3
S'1.0'
p620
sS'MainTriggerCsI'
p621
I234
sS'MainTriggerSi'
p622
I44799
sg7
S'0.501'
p623
sS'MainTriggerCZTSide'
p624
I21861
sS'Not triggered events'
p625
I21062
sS'Number of triggered events'
p626
I78938
sS'Number of vetoed events'
p627
I0
sS'MainTriggerCZT'
p628
I12044
ssS'TraFiles/FarFieldPointSource_0.501MeV_Cos0.9.inc1.id1.tra'
p629
(dp630
g3
S'0.9'
p631
sS'MainTriggerCsI'
p632
I192
sS'MainTriggerSi'
p633
I44053
sg7
S'0.501'
p634
sS'MainTriggerCZTSide'
p635
I20362
sS'Not triggered events'
p636
I24108
sS'Number of triggered events'
p637
I75892
sS'Number of vetoed events'
p638
I0
sS'MainTriggerCZT'
p639
I11285
ssS'TraFiles/FarFieldPointSource_1.000MeV_Cos0.7.inc1.id1.tra'
p640
(dp641
g3
S'0.7'
p642
sS'MainTriggerCsI'
p643
I1154
sS'MainTriggerSi'
p644
I49173
sg7
S'1.000'
p645
sS'MainTriggerCZTSide'
p646
I19885
sS'MainVetoSide'
p647
I1616
sS'Not triggered events'
p648
I12432
sS'Number of triggered events'
p649
I84428
sS'Number of vetoed events'
p650
I3140
sS'MainTriggerCZT'
p651
I14216
sS'MainVetoTop'
p652
I1524
ssS'TraFiles/FarFieldPointSource_1.000MeV_Cos0.9.inc1.id1.tra'
p653
(dp654
g3
S'0.9'
p655
sS'MainTriggerCsI'
p656
I1338
sS'MainTriggerSi'
p657
I49601
sg7
S'1.000'
p658
sS'MainTriggerCZTSide'
p659
I19061
sS'MainVetoSide'
p660
I1634
sS'Not triggered events'
p661
I12374
sS'Number of triggered events'
p662
I84782
sS'Number of vetoed events'
p663
I2844
sS'MainTriggerCZT'
p664
I14782
sS'MainVetoTop'
p665
I1210
ssS'TraFiles/FarFieldPointSource_501.187MeV_Cos0.6.inc1.id1.tra'
p666
(dp667
g3
S'0.6'
p668
sS'MainTriggerCsI'
p669
I51099
sS'MainTriggerSi'
p670
I273
sg7
S'501.187'
p671
sS'MainTriggerCZTSide'
p672
I7794
sS'MainVetoSide'
p673
I31222
sS'Not triggered events'
p674
I2688
sS'Number of triggered events'
p675
I60994
sS'Number of vetoed events'
p676
I36318
sS'MainTriggerCZT'
p677
I1828
sS'MainVetoTop'
p678
I5096
ssS'TraFiles/FarFieldPointSource_3162.277MeV_Cos0.8.inc1.id1.tra'
p679
(dp680
g3
S'0.8'
p681
sS'MainTriggerCsI'
p682
I56673
sS'MainTriggerSi'
p683
I436
sg7
S'3162.277'
p684
sS'MainTriggerCZTSide'
p685
I5671
sS'MainVetoSide'
p686
I28315
sS'Not triggered events'
p687
I2029
sS'Number of triggered events'
p688
I63535
sS'Number of vetoed events'
p689
I34436
sS'MainTriggerCZT'
p690
I755
sS'MainVetoTop'
p691
I6121
ssS'TraFiles/FarFieldPointSource_0.158MeV_Cos0.6.inc1.id1.tra'
p692
(dp693
g3
S'0.6'
p694
sS'MainTriggerCsI'
p695
I1
sS'MainTriggerSi'
p696
I31952
sg7
S'0.158'
p697
sS'MainTriggerCZTSide'
p698
I7643
sS'Not triggered events'
p699
I58499
sS'Number of triggered events'
p700
I41501
sS'Number of vetoed events'
p701
I0
sS'MainTriggerCZT'
p702
I1905
ssS'TraFiles/FarFieldPointSource_316.227MeV_Cos0.7.inc1.id1.tra'
p703
(dp704
g3
S'0.7'
p705
sS'MainTriggerCsI'
p706
I54221
sS'MainTriggerSi'
p707
I306
sg7
S'316.227'
p708
sS'MainTriggerCZTSide'
p709
I10029
sS'MainVetoSide'
p710
I24941
sS'Not triggered events'
p711
I3570
sS'Number of triggered events'
p712
I67047
sS'Number of vetoed events'
p713
I29383
sS'MainTriggerCZT'
p714
I2491
sS'MainVetoTop'
p715
I4442
ssS'TraFiles/FarFieldPointSource_3.162MeV_Cos0.7.inc1.id1.tra'
p716
(dp717
g3
S'0.7'
p718
sS'MainTriggerCsI'
p719
I5960
sS'MainTriggerSi'
p720
I41400
sg7
S'3.162'
p721
sS'MainTriggerCZTSide'
p722
I17730
sS'MainVetoSide'
p723
I3428
sS'Not triggered events'
p724
I5964
sS'Number of triggered events'
p725
I85598
sS'Number of vetoed events'
p726
I8438
sS'MainTriggerCZT'
p727
I20508
sS'MainVetoTop'
p728
I5010
ssS'TraFiles/FarFieldPointSource_158.489MeV_Cos0.6.inc1.id1.tra'
p729
(dp730
g3
S'0.6'
p731
sS'MainTriggerCsI'
p732
I50681
sS'MainTriggerSi'
p733
I371
sg7
S'158.489'
p734
sS'MainTriggerCZTSide'
p735
I11620
sS'MainVetoSide'
p736
I23536
sS'Not triggered events'
p737
I3848
sS'Number of triggered events'
p738
I68225
sS'Number of vetoed events'
p739
I27927
sS'MainTriggerCZT'
p740
I5553
sS'MainVetoTop'
p741
I4391
ssS'TraFiles/FarFieldPointSource_0.316MeV_Cos0.5.inc1.id1.tra'
p742
(dp743
g3
S'0.5'
p744
sS'MainTriggerCsI'
p745
I22
sS'MainTriggerSi'
p746
I40213
sg7
S'0.316'
p747
sS'MainTriggerCZTSide'
p748
I16818
sS'Not triggered events'
p749
I35305
sS'Number of triggered events'
p750
I64695
sS'Number of vetoed events'
p751
I0
sS'MainTriggerCZT'
p752
I7642
ssS'TraFiles/FarFieldPointSource_5011.872MeV_Cos0.8.inc1.id1.tra'
p753
(dp754
g3
S'0.8'
p755
sS'MainTriggerCsI'
p756
I63213
sS'MainTriggerSi'
p757
I464
sg7
S'5011.872'
p758
sS'MainTriggerCZTSide'
p759
I4426
sS'MainVetoSide'
p760
I24027
sS'Not triggered events'
p761
I2148
sS'Number of triggered events'
p762
I68848
sS'Number of vetoed events'
p763
I29004
sS'MainTriggerCZT'
p764
I745
sS'MainVetoTop'
p765
I4977
ssS'TraFiles/FarFieldPointSource_15.848MeV_Cos1.0.inc1.id1.tra'
p766
(dp767
g3
S'1.0'
p768
sS'MainTriggerCsI'
p769
I23050
sS'MainTriggerSi'
p770
I9481
sg7
S'15.848'
p771
sS'MainTriggerCZTSide'
p772
I17813
sS'MainVetoSide'
p773
I3703
sS'Not triggered events'
p774
I7065
sS'Number of triggered events'
p775
I81804
sS'Number of vetoed events'
p776
I11131
sS'MainTriggerCZT'
p777
I31460
sS'MainVetoTop'
p778
I7428
ssS'TraFiles/FarFieldPointSource_0.501MeV_Cos0.8.inc1.id1.tra'
p779
(dp780
g3
S'0.8'
p781
sS'MainTriggerCsI'
p782
I175
sS'MainTriggerSi'
p783
I43751
sg7
S'0.501'
p784
sS'MainTriggerCZTSide'
p785
I20569
sS'Not triggered events'
p786
I24469
sS'Number of triggered events'
p787
I75531
sS'Number of vetoed events'
p788
I0
sS'MainTriggerCZT'
p789
I11036
ssS'TraFiles/FarFieldPointSource_10.000MeV_Cos0.8.inc1.id1.tra'
p790
(dp791
g3
S'0.8'
p792
sS'MainTriggerCsI'
p793
I12241
sS'MainTriggerSi'
p794
I20456
sg7
S'10.000'
p795
sS'MainTriggerCZTSide'
p796
I20074
sS'MainVetoSide'
p797
I3975
sS'Not triggered events'
p798
I6261
sS'Number of triggered events'
p799
I81876
sS'Number of vetoed events'
p800
I11863
sS'MainTriggerCZT'
p801
I29105
sS'MainVetoTop'
p802
I7888
ssS'TraFiles/FarFieldPointSource_3.162MeV_Cos0.5.inc1.id1.tra'
p803
(dp804
g3
S'0.5'
p805
sS'MainTriggerCsI'
p806
I4638
sS'MainTriggerSi'
p807
I43238
sg7
S'3.162'
p808
sS'MainTriggerCZTSide'
p809
I18191
sS'MainVetoSide'
p810
I3713
sS'Not triggered events'
p811
I5800
sS'Number of triggered events'
p812
I85813
sS'Number of vetoed events'
p813
I8387
sS'MainTriggerCZT'
p814
I19746
sS'MainVetoTop'
p815
I4674
ssS'TraFiles/FarFieldPointSource_3.162MeV_Cos0.8.inc1.id1.tra'
p816
(dp817
g3
S'0.8'
p818
sS'MainTriggerCsI'
p819
I6902
sS'MainTriggerSi'
p820
I39793
sg7
S'3.162'
p821
sS'MainTriggerCZTSide'
p822
I17312
sS'MainVetoSide'
p823
I3311
sS'Not triggered events'
p824
I5911
sS'Number of triggered events'
p825
I85389
sS'Number of vetoed events'
p826
I8700
sS'MainTriggerCZT'
p827
I21382
sS'MainVetoTop'
p828
I5389
ssS'TraFiles/FarFieldPointSource_1584.893MeV_Cos0.5.inc1.id1.tra'
p829
(dp830
g3
S'0.5'
p831
sS'MainTriggerCsI'
p832
I40510
sS'MainTriggerSi'
p833
I282
sg7
S'1584.893'
p834
sS'MainTriggerCZTSide'
p835
I5219
sS'MainVetoSide'
p836
I41974
sS'Not triggered events'
p837
I2136
sS'Number of triggered events'
p838
I47105
sS'Number of vetoed events'
p839
I50759
sS'MainTriggerCZT'
p840
I1094
sS'MainVetoTop'
p841
I8785
ssS'TraFiles/FarFieldPointSource_501.187MeV_Cos0.5.inc1.id1.tra'
p842
(dp843
g3
S'0.5'
p844
sS'MainTriggerCsI'
p845
I47620
sS'MainTriggerSi'
p846
I201
sg7
S'501.187'
p847
sS'MainTriggerCZTSide'
p848
I6800
sS'MainVetoSide'
p849
I35701
sS'Not triggered events'
p850
I2393
sS'Number of triggered events'
p851
I56525
sS'Number of vetoed events'
p852
I41082
sS'MainTriggerCZT'
p853
I1904
sS'MainVetoTop'
p854
I5381
ssS'TraFiles/FarFieldPointSource_0.316MeV_Cos0.8.inc1.id1.tra'
p855
(dp856
g3
S'0.8'
p857
sS'MainTriggerCsI'
p858
I18
sS'MainTriggerSi'
p859
I40640
sg7
S'0.316'
p860
sS'MainTriggerCZTSide'
p861
I16921
sS'Not triggered events'
p862
I34669
sS'Number of triggered events'
p863
I65331
sS'Number of vetoed events'
p864
I0
sS'MainTriggerCZT'
p865
I7752
ssS'TraFiles/FarFieldPointSource_0.158MeV_Cos0.5.inc1.id1.tra'
p866
(dp867
g3
S'0.5'
p868
sS'MainTriggerSi'
p869
I31769
sg7
S'0.158'
p870
sS'MainTriggerCZTSide'
p871
I7843
sS'Not triggered events'
p872
I58475
sS'Number of triggered events'
p873
I41525
sS'Number of vetoed events'
p874
I0
sS'MainTriggerCZT'
p875
I1913
ssS'TraFiles/FarFieldPointSource_10.000MeV_Cos0.6.inc1.id1.tra'
p876
(dp877
g3
S'0.6'
p878
sS'MainTriggerCsI'
p879
I9483
sS'MainTriggerSi'
p880
I23723
sg7
S'10.000'
p881
sS'MainTriggerCZTSide'
p882
I21141
sS'MainVetoSide'
p883
I4684
sS'Not triggered events'
p884
I5790
sS'Number of triggered events'
p885
I82040
sS'Number of vetoed events'
p886
I12170
sS'MainTriggerCZT'
p887
I27693
sS'MainVetoTop'
p888
I7486
ssS'TraFiles/FarFieldPointSource_3162.277MeV_Cos0.5.inc1.id1.tra'
p889
(dp890
g3
S'0.5'
p891
sS'MainTriggerCsI'
p892
I50930
sS'MainTriggerSi'
p893
I1024
sg7
S'3162.277'
p894
sS'MainTriggerCZTSide'
p895
I4737
sS'MainVetoSide'
p896
I33804
sS'Not triggered events'
p897
I2249
sS'Number of triggered events'
p898
I57634
sS'Number of vetoed events'
p899
I40117
sS'MainTriggerCZT'
p900
I943
sS'MainVetoTop'
p901
I6313
ssS'TraFiles/FarFieldPointSource_50.118MeV_Cos1.0.inc1.id1.tra'
p902
(dp903
g3
S'1.0'
p904
sS'MainTriggerCsI'
p905
I50156
sS'MainTriggerSi'
p906
I1140
sg7
S'50.118'
p907
sS'MainTriggerCZTSide'
p908
I16275
sS'MainVetoSide'
p909
I7795
sS'Not triggered events'
p910
I6564
sS'Number of triggered events'
p911
I79858
sS'Number of vetoed events'
p912
I13578
sS'MainTriggerCZT'
p913
I12287
sS'MainVetoTop'
p914
I5783
ssS'TraFiles/FarFieldPointSource_31.622MeV_Cos0.5.inc1.id1.tra'
p915
(dp916
g3
S'0.5'
p917
sS'MainTriggerCsI'
p918
I22168
sS'MainTriggerSi'
p919
I5709
sg7
S'31.622'
p920
sS'MainTriggerCZTSide'
p921
I21544
sS'MainVetoSide'
p922
I13766
sS'Not triggered events'
p923
I5228
sS'Number of triggered events'
p924
I75292
sS'Number of vetoed events'
p925
I19480
sS'MainTriggerCZT'
p926
I25871
sS'MainVetoTop'
p927
I5714
ssS'TraFiles/FarFieldPointSource_0.501MeV_Cos0.5.inc1.id1.tra'
p928
(dp929
g3
S'0.5'
p930
sS'MainTriggerCsI'
p931
I117
sS'MainTriggerSi'
p932
I43729
sg7
S'0.501'
p933
sS'MainTriggerCZTSide'
p934
I20504
sS'Not triggered events'
p935
I24817
sS'Number of triggered events'
p936
I75183
sS'Number of vetoed events'
p937
I0
sS'MainTriggerCZT'
p938
I10833
ssS'TraFiles/FarFieldPointSource_15.848MeV_Cos0.7.inc1.id1.tra'
p939
(dp940
g3
S'0.7'
p941
sS'MainTriggerCsI'
p942
I15534
sS'MainTriggerSi'
p943
I14166
sg7
S'15.848'
p944
sS'MainTriggerCZTSide'
p945
I21527
sS'MainVetoSide'
p946
I5899
sS'Not triggered events'
p947
I6191
sS'Number of triggered events'
p948
I81024
sS'Number of vetoed events'
p949
I12785
sS'MainTriggerCZT'
p950
I29797
sS'MainVetoTop'
p951
I6886
ssS'TraFiles/FarFieldPointSource_1000.000MeV_Cos0.5.inc1.id1.tra'
p952
(dp953
g3
S'0.5'
p954
sS'MainTriggerCsI'
p955
I42955
sS'MainTriggerSi'
p956
I241
sg7
S'1000.000'
p957
sS'MainTriggerCZTSide'
p958
I5645
sS'MainVetoSide'
p959
I40594
sS'Not triggered events'
p960
I2094
sS'Number of triggered events'
p961
I50120
sS'Number of vetoed events'
p962
I47786
sS'MainTriggerCZT'
p963
I1279
sS'MainVetoTop'
p964
I7192
ssS'TraFiles/FarFieldPointSource_5.011MeV_Cos0.7.inc1.id1.tra'
p965
(dp966
g3
S'0.7'
p967
sS'MainTriggerCsI'
p968
I7670
sS'MainTriggerSi'
p969
I34307
sg7
S'5.011'
p970
sS'MainTriggerCZTSide'
p971
I18524
sS'MainVetoSide'
p972
I3531
sS'Not triggered events'
p973
I5684
sS'Number of triggered events'
p974
I83848
sS'Number of vetoed events'
p975
I10468
sS'MainTriggerCZT'
p976
I23347
sS'MainVetoTop'
p977
I6937
ssS'TraFiles/FarFieldPointSource_1.000MeV_Cos0.6.inc1.id1.tra'
p978
(dp979
g3
S'0.6'
p980
sS'MainTriggerCsI'
p981
I1093
sS'MainTriggerSi'
p982
I48487
sg7
S'1.000'
p983
sS'MainTriggerCZTSide'
p984
I20205
sS'MainVetoSide'
p985
I1639
sS'Not triggered events'
p986
I12568
sS'Number of triggered events'
p987
I84152
sS'Number of vetoed events'
p988
I3280
sS'MainTriggerCZT'
p989
I14367
sS'MainVetoTop'
p990
I1641
ssS'TraFiles/FarFieldPointSource_15.848MeV_Cos0.5.inc1.id1.tra'
p991
(dp992
g3
S'0.5'
p993
sS'MainTriggerCsI'
p994
I11810
sS'MainTriggerSi'
p995
I16557
sg7
S'15.848'
p996
sS'MainTriggerCZTSide'
p997
I22344
sS'MainVetoSide'
p998
I7212
sS'Not triggered events'
p999
I5539
sS'Number of triggered events'
p1000
I80281
sS'Number of vetoed events'
p1001
I14180
sS'MainTriggerCZT'
p1002
I29570
sS'MainVetoTop'
p1003
I6968
ssS'TraFiles/FarFieldPointSource_0.501MeV_Cos0.7.inc1.id1.tra'
p1004
(dp1005
g3
S'0.7'
p1006
sS'MainTriggerCsI'
p1007
I170
sS'MainTriggerSi'
p1008
I43934
sg7
S'0.501'
p1009
sS'MainTriggerCZTSide'
p1010
I20409
sS'Not triggered events'
p1011
I24853
sS'Number of triggered events'
p1012
I75147
sS'Number of vetoed events'
p1013
I0
sS'MainTriggerCZT'
p1014
I10634
ssS'TraFiles/FarFieldPointSource_158.489MeV_Cos0.5.inc1.id1.tra'
p1015
(dp1016
g3
S'0.5'
p1017
sS'MainTriggerCsI'
p1018
I47887
sS'MainTriggerSi'
p1019
I373
sg7
S'158.489'
p1020
sS'MainTriggerCZTSide'
p1021
I11090
sS'MainVetoSide'
p1022
I26976
sS'Not triggered events'
p1023
I3330
sS'Number of triggered events'
p1024
I65263
sS'Number of vetoed events'
p1025
I31407
sS'MainTriggerCZT'
p1026
I5913
sS'MainVetoTop'
p1027
I4431
ssS'TraFiles/FarFieldPointSource_5.011MeV_Cos0.5.inc1.id1.tra'
p1028
(dp1029
g3
S'0.5'
p1030
sS'MainTriggerCsI'
p1031
I5847
sS'MainTriggerSi'
p1032
I36999
sg7
S'5.011'
p1033
sS'MainTriggerCZTSide'
p1034
I18982
sS'MainVetoSide'
p1035
I4076
sS'Not triggered events'
p1036
I5540
sS'Number of triggered events'
p1037
I83994
sS'Number of vetoed events'
p1038
I10466
sS'MainTriggerCZT'
p1039
I22166
sS'MainVetoTop'
p1040
I6390
ssS'TraFiles/FarFieldPointSource_31.622MeV_Cos0.6.inc1.id1.tra'
p1041
(dp1042
g3
S'0.6'
p1043
sS'MainTriggerCsI'
p1044
I25162
sS'MainTriggerSi'
p1045
I4966
sg7
S'31.622'
p1046
sS'MainTriggerCZTSide'
p1047
I21123
sS'MainVetoSide'
p1048
I12436
sS'Not triggered events'
p1049
I5608
sS'Number of triggered events'
p1050
I76353
sS'Number of vetoed events'
p1051
I18039
sS'MainTriggerCZT'
p1052
I25102
sS'MainVetoTop'
p1053
I5603
ssS'TraFiles/FarFieldPointSource_100.000MeV_Cos0.8.inc1.id1.tra'
p1054
(dp1055
g3
S'0.8'
p1056
sS'MainTriggerCsI'
p1057
I51917
sS'MainTriggerSi'
p1058
I528
sg7
S'100.000'
p1059
sS'MainTriggerCZTSide'
p1060
I15342
sS'MainVetoSide'
p1061
I15292
sS'Not triggered events'
p1062
I5112
sS'Number of triggered events'
p1063
I74945
sS'Number of vetoed events'
p1064
I19943
sS'MainTriggerCZT'
p1065
I7158
sS'MainVetoTop'
p1066
I4651
ssS'TraFiles/FarFieldPointSource_1000.000MeV_Cos1.0.inc1.id1.tra'
p1067
(dp1068
g3
S'1.0'
p1069
sS'MainTriggerCsI'
p1070
I54108
sS'MainTriggerSi'
p1071
I131
sg7
S'1000.000'
p1072
sS'MainTriggerCZTSide'
p1073
I11249
sS'MainVetoSide'
p1074
I23813
sS'Not triggered events'
p1075
I4461
sS'Number of triggered events'
p1076
I66081
sS'Number of vetoed events'
p1077
I29458
sS'MainTriggerCZT'
p1078
I593
sS'MainVetoTop'
p1079
I5645
ssS'TraFiles/FarFieldPointSource_31.622MeV_Cos0.9.inc1.id1.tra'
p1080
(dp1081
g3
S'0.9'
p1082
sS'MainTriggerCsI'
p1083
I35793
sS'MainTriggerSi'
p1084
I3137
sg7
S'31.622'
p1085
sS'MainTriggerCZTSide'
p1086
I19044
sS'MainVetoSide'
p1087
I7726
sS'Not triggered events'
p1088
I6350
sS'Number of triggered events'
p1089
I80159
sS'Number of vetoed events'
p1090
I13491
sS'MainTriggerCZT'
p1091
I22185
sS'MainVetoTop'
p1092
I5765
ssS'TraFiles/FarFieldPointSource_1584.893MeV_Cos0.6.inc1.id1.tra'
p1093
(dp1094
g3
S'0.6'
p1095
sS'MainTriggerCsI'
p1096
I46280
sS'MainTriggerSi'
p1097
I351
sg7
S'1584.893'
p1098
sS'MainTriggerCZTSide'
p1099
I5370
sS'MainVetoSide'
p1100
I36944
sS'Not triggered events'
p1101
I2028
sS'Number of triggered events'
p1102
I53129
sS'Number of vetoed events'
p1103
I44843
sS'MainTriggerCZT'
p1104
I1128
sS'MainVetoTop'
p1105
I7899
ssS'TraFiles/FarFieldPointSource_501.187MeV_Cos1.0.inc1.id1.tra'
p1106
(dp1107
g3
S'1.0'
p1108
sS'MainTriggerCsI'
p1109
I57118
sS'MainTriggerSi'
p1110
I171
sg7
S'501.187'
p1111
sS'MainTriggerCZTSide'
p1112
I11076
sS'MainVetoSide'
p1113
I20848
sS'Not triggered events'
p1114
I4643
sS'Number of triggered events'
p1115
I69370
sS'Number of vetoed events'
p1116
I25987
sS'MainTriggerCZT'
p1117
I1005
sS'MainVetoTop'
p1118
I5139
ssS'TraFiles/FarFieldPointSource_3162.277MeV_Cos0.6.inc1.id1.tra'
p1119
(dp1120
g3
S'0.6'
p1121
sS'MainTriggerCsI'
p1122
I55470
sS'MainTriggerSi'
p1123
I631
sg7
S'3162.277'
p1124
sS'MainTriggerCZTSide'
p1125
I4344
sS'MainVetoSide'
p1126
I30374
sS'Not triggered events'
p1127
I2024
sS'Number of triggered events'
p1128
I61453
sS'Number of vetoed events'
p1129
I36523
sS'MainTriggerCZT'
p1130
I1008
sS'MainVetoTop'
p1131
I6149
ssS'TraFiles/FarFieldPointSource_0.316MeV_Cos1.0.inc1.id1.tra'
p1132
(dp1133
g3
S'1.0'
p1134
sS'MainTriggerCsI'
p1135
I25
sS'MainTriggerSi'
p1136
I41561
sg7
S'0.316'
p1137
sS'MainTriggerCZTSide'
p1138
I19553
sS'Not triggered events'
p1139
I29641
sS'Number of triggered events'
p1140
I70359
sS'Number of vetoed events'
p1141
I0
sS'MainTriggerCZT'
p1142
I9220
ssS'TraFiles/FarFieldPointSource_0.158MeV_Cos0.8.inc1.id1.tra'
p1143
(dp1144
g3
S'0.8'
p1145
sS'MainTriggerSi'
p1146
I32373
sg7
S'0.158'
p1147
sS'MainTriggerCZTSide'
p1148
I7671
sS'Not triggered events'
p1149
I57944
sS'Number of triggered events'
p1150
I42056
sS'Number of vetoed events'
p1151
I0
sS'MainTriggerCZT'
p1152
I2012
ssS'TraFiles/FarFieldPointSource_501.187MeV_Cos0.8.inc1.id1.tra'
p1153
(dp1154
g3
S'0.8'
p1155
sS'MainTriggerCsI'
p1156
I55113
sS'MainTriggerSi'
p1157
I338
sg7
S'501.187'
p1158
sS'MainTriggerCZTSide'
p1159
I9878
sS'MainVetoSide'
p1160
I24755
sS'Not triggered events'
p1161
I3728
sS'Number of triggered events'
p1162
I66832
sS'Number of vetoed events'
p1163
I29440
sS'MainTriggerCZT'
p1164
I1503
sS'MainVetoTop'
p1165
I4685
ssS'TraFiles/FarFieldPointSource_1000.000MeV_Cos0.9.inc1.id1.tra'
p1166
(dp1167
g3
S'0.9'
p1168
sS'MainTriggerCsI'
p1169
I54290
sS'MainTriggerSi'
p1170
I283
sg7
S'1000.000'
p1171
sS'MainTriggerCZTSide'
p1172
I9816
sS'MainVetoSide'
p1173
I25992
sS'Not triggered events'
p1174
I3552
sS'Number of triggered events'
p1175
I65201
sS'Number of vetoed events'
p1176
I31247
sS'MainTriggerCZT'
p1177
I812
sS'MainVetoTop'
p1178
I5255
ssS'TraFiles/FarFieldPointSource_3162.277MeV_Cos0.9.inc1.id1.tra'
p1179
(dp1180
g3
S'0.9'
p1181
sS'MainTriggerCsI'
p1182
I55044
sS'MainTriggerSi'
p1183
I275
sg7
S'3162.277'
p1184
sS'MainTriggerCZTSide'
p1185
I7397
sS'MainVetoSide'
p1186
I28116
sS'Not triggered events'
p1187
I2422
sS'Number of triggered events'
p1188
I63281
sS'Number of vetoed events'
p1189
I34297
sS'MainTriggerCZT'
p1190
I565
sS'MainVetoTop'
p1191
I6181
ssS'TraFiles/FarFieldPointSource_1000.000MeV_Cos0.7.inc1.id1.tra'
p1192
(dp1193
g3
S'0.7'
p1194
sS'MainTriggerCsI'
p1195
I51566
sS'MainTriggerSi'
p1196
I396
sg7
S'1000.000'
p1197
sS'MainTriggerCZTSide'
p1198
I7398
sS'MainVetoSide'
p1199
I31218
sS'Not triggered events'
p1200
I2455
sS'Number of triggered events'
p1201
I60562
sS'Number of vetoed events'
p1202
I36983
sS'MainTriggerCZT'
p1203
I1202
sS'MainVetoTop'
p1204
I5765
ssS'TraFiles/FarFieldPointSource_0.316MeV_Cos0.6.inc1.id1.tra'
p1205
(dp1206
g3
S'0.6'
p1207
sS'MainTriggerCsI'
p1208
I21
sS'MainTriggerSi'
p1209
I40267
sg7
S'0.316'
p1210
sS'MainTriggerCZTSide'
p1211
I16810
sS'Not triggered events'
p1212
I35383
sS'Number of triggered events'
p1213
I64617
sS'Number of vetoed events'
p1214
I0
sS'MainTriggerCZT'
p1215
I7519
ssS'TraFiles/FarFieldPointSource_0.501MeV_Cos0.6.inc1.id1.tra'
p1216
(dp1217
g3
S'0.6'
p1218
sS'MainTriggerCsI'
p1219
I150
sS'MainTriggerSi'
p1220
I43637
sg7
S'0.501'
p1221
sS'MainTriggerCZTSide'
p1222
I20557
sS'Not triggered events'
p1223
I24940
sS'Number of triggered events'
p1224
I75060
sS'Number of vetoed events'
p1225
I0
sS'MainTriggerCZT'
p1226
I10716
ssS'TraFiles/FarFieldPointSource_5011.872MeV_Cos1.0.inc1.id1.tra'
p1227
(dp1228
g3
S'1.0'
p1229
sS'MainTriggerCsI'
p1230
I58321
sS'MainTriggerSi'
p1231
I173
sg7
S'5011.872'
p1232
sS'MainTriggerCZTSide'
p1233
I7875
sS'MainVetoSide'
p1234
I23727
sS'Not triggered events'
p1235
I2794
sS'Number of triggered events'
p1236
I66641
sS'Number of vetoed events'
p1237
I30565
sS'MainTriggerCZT'
p1238
I272
sS'MainVetoTop'
p1239
I6838
ssS'TraFiles/FarFieldPointSource_1.584MeV_Cos1.0.inc1.id1.tra'
p1240
(dp1241
g3
S'1.0'
p1242
sS'MainTriggerCsI'
p1243
I4491
sS'MainTriggerSi'
p1244
I48296
sg7
S'1.584'
p1245
sS'MainTriggerCZTSide'
p1246
I16280
sS'MainVetoSide'
p1247
I1462
sS'Not triggered events'
p1248
I6985
sS'Number of triggered events'
p1249
I88643
sS'Number of vetoed events'
p1250
I4372
sS'MainTriggerCZT'
p1251
I19576
sS'MainVetoTop'
p1252
I2910
ssS'TraFiles/FarFieldPointSource_100.000MeV_Cos0.5.inc1.id1.tra'
p1253
(dp1254
g3
S'0.5'
p1255
sS'MainTriggerCsI'
p1256
I43954
sS'MainTriggerSi'
p1257
I634
sg7
S'100.000'
p1258
sS'MainTriggerCZTSide'
p1259
I13882
sS'MainVetoSide'
p1260
I23667
sS'Not triggered events'
p1261
I3907
sS'Number of triggered events'
p1262
I67959
sS'Number of vetoed events'
p1263
I28134
sS'MainTriggerCZT'
p1264
I9489
sS'MainVetoTop'
p1265
I4467
ssS'TraFiles/FarFieldPointSource_1.584MeV_Cos0.9.inc1.id1.tra'
p1266
(dp1267
g3
S'0.9'
p1268
sS'MainTriggerCsI'
p1269
I3587
sS'MainTriggerSi'
p1270
I48003
sg7
S'1.584'
p1271
sS'MainTriggerCZTSide'
p1272
I17157
sS'MainVetoSide'
p1273
I2459
sS'Not triggered events'
p1274
I8065
sS'Number of triggered events'
p1275
I86695
sS'Number of vetoed events'
p1276
I5240
sS'MainTriggerCZT'
p1277
I17948
sS'MainVetoTop'
p1278
I2781
ssS'TraFiles/FarFieldPointSource_10.000MeV_Cos0.7.inc1.id1.tra'
p1279
(dp1280
g3
S'0.7'
p1281
sS'MainTriggerCsI'
p1282
I10788
sS'MainTriggerSi'
p1283
I22284
sg7
S'10.000'
p1284
sS'MainTriggerCZTSide'
p1285
I20436
sS'MainVetoSide'
p1286
I4277
sS'Not triggered events'
p1287
I6186
sS'Number of triggered events'
p1288
I81791
sS'Number of vetoed events'
p1289
I12023
sS'MainTriggerCZT'
p1290
I28283
sS'MainVetoTop'
p1291
I7746
ssS'TraFiles/FarFieldPointSource_1000.000MeV_Cos0.6.inc1.id1.tra'
p1292
(dp1293
g3
S'0.6'
p1294
sS'MainTriggerCsI'
p1295
I48640
sS'MainTriggerSi'
p1296
I268
sg7
S'1000.000'
p1297
sS'MainTriggerCZTSide'
p1298
I6157
sS'MainVetoSide'
p1299
I35018
sS'Not triggered events'
p1300
I2209
sS'Number of triggered events'
p1301
I56369
sS'Number of vetoed events'
p1302
I41422
sS'MainTriggerCZT'
p1303
I1304
sS'MainVetoTop'
p1304
I6404
ssS'TraFiles/FarFieldPointSource_15.848MeV_Cos0.8.inc1.id1.tra'
p1305
(dp1306
g3
S'0.8'
p1307
sS'MainTriggerCsI'
p1308
I17329
sS'MainTriggerSi'
p1309
I12678
sg7
S'15.848'
p1310
sS'MainTriggerCZTSide'
p1311
I20859
sS'MainVetoSide'
p1312
I5247
sS'Not triggered events'
p1313
I6091
sS'Number of triggered events'
p1314
I81630
sS'Number of vetoed events'
p1315
I12279
sS'MainTriggerCZT'
p1316
I30764
sS'MainVetoTop'
p1317
I7032
ssS'TraFiles/FarFieldPointSource_5011.872MeV_Cos0.6.inc1.id1.tra'
p1318
(dp1319
g3
S'0.6'
p1320
sS'MainTriggerCsI'
p1321
I58691
sS'MainTriggerSi'
p1322
I1302
sg7
S'5011.872'
p1323
sS'MainTriggerCZTSide'
p1324
I4165
sS'MainVetoSide'
p1325
I27093
sS'Not triggered events'
p1326
I2115
sS'Number of triggered events'
p1327
I65149
sS'Number of vetoed events'
p1328
I32736
sS'MainTriggerCZT'
p1329
I991
sS'MainVetoTop'
p1330
I5643
ssS'TraFiles/FarFieldPointSource_316.227MeV_Cos0.8.inc1.id1.tra'
p1331
(dp1332
g3
S'0.8'
p1333
sS'MainTriggerCsI'
p1334
I55515
sS'MainTriggerSi'
p1335
I338
sg7
S'316.227'
p1336
sS'MainTriggerCZTSide'
p1337
I11052
sS'MainVetoSide'
p1338
I22112
sS'Not triggered events'
p1339
I4012
sS'Number of triggered events'
p1340
I69217
sS'Number of vetoed events'
p1341
I26771
sS'MainTriggerCZT'
p1342
I2312
sS'MainVetoTop'
p1343
I4659
ssS'TraFiles/FarFieldPointSource_158.489MeV_Cos1.0.inc1.id1.tra'
p1344
(dp1345
g3
S'1.0'
p1346
sS'MainTriggerCsI'
p1347
I58223
sS'MainTriggerSi'
p1348
I243
sg7
S'158.489'
p1349
sS'MainTriggerCZTSide'
p1350
I13051
sS'MainVetoSide'
p1351
I13533
sS'Not triggered events'
p1352
I5516
sS'Number of triggered events'
p1353
I75624
sS'Number of vetoed events'
p1354
I18860
sS'MainTriggerCZT'
p1355
I4107
sS'MainVetoTop'
p1356
I5327
ssS'TraFiles/FarFieldPointSource_10.000MeV_Cos0.5.inc1.id1.tra'
p1357
(dp1358
g3
S'0.5'
p1359
sS'MainTriggerCsI'
p1360
I8277
sS'MainTriggerSi'
p1361
I25204
sg7
S'10.000'
p1362
sS'MainTriggerCZTSide'
p1363
I21309
sS'MainVetoSide'
p1364
I4987
sS'Not triggered events'
p1365
I5629
sS'Number of triggered events'
p1366
I81967
sS'Number of vetoed events'
p1367
I12404
sS'MainTriggerCZT'
p1368
I27177
sS'MainVetoTop'
p1369
I7417
ssS'TraFiles/FarFieldPointSource_1.584MeV_Cos0.8.inc1.id1.tra'
p1370
(dp1371
g3
S'0.8'
p1372
sS'MainTriggerCsI'
p1373
I3293
sS'MainTriggerSi'
p1374
I47970
sg7
S'1.584'
p1375
sS'MainTriggerCZTSide'
p1376
I18012
sS'MainVetoSide'
p1377
I2611
sS'Not triggered events'
p1378
I8091
sS'Number of triggered events'
p1379
I86668
sS'Number of vetoed events'
p1380
I5241
sS'MainTriggerCZT'
p1381
I17393
sS'MainVetoTop'
p1382
I2630
ssS'TraFiles/FarFieldPointSource_501.187MeV_Cos0.9.inc1.id1.tra'
p1383
(dp1384
g3
S'0.9'
p1385
sS'MainTriggerCsI'
p1386
I56527
sS'MainTriggerSi'
p1387
I285
sg7
S'501.187'
p1388
sS'MainTriggerCZTSide'
p1389
I10706
sS'MainVetoSide'
p1390
I22488
sS'Not triggered events'
p1391
I4070
sS'Number of triggered events'
p1392
I68791
sS'Number of vetoed events'
p1393
I27139
sS'MainTriggerCZT'
p1394
I1273
sS'MainVetoTop'
p1395
I4651
ssS'TraFiles/FarFieldPointSource_0.158MeV_Cos0.9.inc1.id1.tra'
p1396
(dp1397
g3
S'0.9'
p1398
sS'MainTriggerSi'
p1399
I32433
sg7
S'0.158'
p1400
sS'MainTriggerCZTSide'
p1401
I7910
sS'Not triggered events'
p1402
I57514
sS'Number of triggered events'
p1403
I42486
sS'Number of vetoed events'
p1404
I0
sS'MainTriggerCZT'
p1405
I2143
ssS'TraFiles/FarFieldPointSource_100.000MeV_Cos0.7.inc1.id1.tra'
p1406
(dp1407
g3
S'0.7'
p1408
sS'MainTriggerCsI'
p1409
I49586
sS'MainTriggerSi'
p1410
I540
sg7
S'100.000'
p1411
sS'MainTriggerCZTSide'
p1412
I15072
sS'MainVetoSide'
p1413
I17630
sS'Not triggered events'
p1414
I4936
sS'Number of triggered events'
p1415
I72900
sS'Number of vetoed events'
p1416
I22164
sS'MainTriggerCZT'
p1417
I7702
sS'MainVetoTop'
p1418
I4534
ssS'TraFiles/FarFieldPointSource_5.011MeV_Cos1.0.inc1.id1.tra'
p1419
(dp1420
g3
S'1.0'
p1421
sS'MainTriggerCsI'
p1422
I12234
sS'MainTriggerSi'
p1423
I29312
sg7
S'5.011'
p1424
sS'MainTriggerCZTSide'
p1425
I15334
sS'MainVetoSide'
p1426
I2237
sS'Not triggered events'
p1427
I5691
sS'Number of triggered events'
p1428
I83592
sS'Number of vetoed events'
p1429
I10717
sS'MainTriggerCZT'
p1430
I26712
sS'MainVetoTop'
p1431
I8480
ssS'TraFiles/FarFieldPointSource_1584.893MeV_Cos0.8.inc1.id1.tra'
p1432
(dp1433
g3
S'0.8'
p1434
sS'MainTriggerCsI'
p1435
I52118
sS'MainTriggerSi'
p1436
I343
sg7
S'1584.893'
p1437
sS'MainTriggerCZTSide'
p1438
I7696
sS'MainVetoSide'
p1439
I30192
sS'Not triggered events'
p1440
I2567
sS'Number of triggered events'
p1441
I61063
sS'Number of vetoed events'
p1442
I36370
sS'MainTriggerCZT'
p1443
I906
sS'MainVetoTop'
p1444
I6178
ss.