(dp0
S'./TraFiles/FarFieldPointSource_5011.872MeV_Cos1.0.inc1.id1.tra'
p1
(dp2
S'Cos'
p3
S'1.0'
p4
sS'MainTriggerCsI'
p5
I62248
sS'MainTriggerSi'
p6
I62773
sS'MeV'
p7
S'5011.872'
p8
sS'MainTriggerCZTSide'
p9
I41688
sS'MainVetoSide'
p10
I29755
sS'Not triggered events'
p11
I4753
sS'Number of triggered events'
p12
I62773
sS'Number of vetoed events'
p13
I32474
sS'MainTriggerCZT'
p14
I55113
sS'MainVetoTop'
p15
I7742
ssS'./TraFiles/FarFieldPointSource_31.622MeV_Cos0.9.inc1.id1.tra'
p16
(dp17
g3
S'0.9'
p18
sS'MainTriggerCsI'
p19
I41784
sS'MainTriggerSi'
p20
I77948
sg7
S'31.622'
p21
sS'MainTriggerCZTSide'
p22
I37109
sS'MainVetoSide'
p23
I8087
sS'Not triggered events'
p24
I8352
sS'Number of triggered events'
p25
I77948
sS'Number of vetoed events'
p26
I13700
sS'MainTriggerCZT'
p27
I65866
sS'MainVetoTop'
p28
I6614
ssS'./TraFiles/FarFieldPointSource_501.187MeV_Cos0.8.inc1.id1.tra'
p29
(dp30
g3
S'0.8'
p31
sS'MainTriggerCsI'
p32
I62045
sS'MainTriggerSi'
p33
I64754
sg7
S'501.187'
p34
sS'MainTriggerCZTSide'
p35
I52054
sS'MainVetoSide'
p36
I26847
sS'Not triggered events'
p37
I5529
sS'Number of triggered events'
p38
I64754
sS'Number of vetoed events'
p39
I29717
sS'MainTriggerCZT'
p40
I63138
sS'MainVetoTop'
p41
I5098
ssS'./TraFiles/FarFieldPointSource_316.227MeV_Cos1.0.inc1.id1.tra'
p42
(dp43
g3
S'1.0'
p44
sS'MainTriggerCsI'
p45
I67482
sS'MainTriggerSi'
p46
I70031
sg7
S'316.227'
p47
sS'MainTriggerCZTSide'
p48
I48900
sS'MainVetoSide'
p49
I18070
sS'Not triggered events'
p50
I7285
sS'Number of triggered events'
p51
I70031
sS'Number of vetoed events'
p52
I22684
sS'MainTriggerCZT'
p53
I68758
sS'MainVetoTop'
p54
I5686
ssS'./TraFiles/FarFieldPointSource_0.316MeV_Cos0.7.inc1.id1.tra'
p55
(dp56
g3
S'0.7'
p57
sS'MainTriggerCsI'
p58
I31
sS'MainTriggerSi'
p59
I60922
sg7
S'0.316'
p60
sS'MainTriggerCZTSide'
p61
I4557
sS'Not triggered events'
p62
I39078
sS'Number of triggered events'
p63
I60922
sS'Number of vetoed events'
p64
I0
sS'MainTriggerCZT'
p65
I9014
ssS'./TraFiles/FarFieldPointSource_1.000MeV_Cos0.6.inc1.id1.tra'
p66
(dp67
g3
S'0.6'
p68
sS'MainTriggerCsI'
p69
I1250
sS'MainTriggerSi'
p70
I82862
sg7
S'1.000'
p71
sS'MainTriggerCZTSide'
p72
I10261
sS'MainVetoSide'
p73
I1531
sS'Not triggered events'
p74
I13908
sS'Number of triggered events'
p75
I82862
sS'Number of vetoed events'
p76
I3230
sS'MainTriggerCZT'
p77
I16814
sS'MainVetoTop'
p78
I1699
ssS'./TraFiles/FarFieldPointSource_1.584MeV_Cos0.6.inc1.id1.tra'
p79
(dp80
g3
S'0.6'
p81
sS'MainTriggerCsI'
p82
I2932
sS'MainTriggerSi'
p83
I85652
sg7
S'1.584'
p84
sS'MainTriggerCZTSide'
p85
I11778
sS'MainVetoSide'
p86
I2604
sS'Not triggered events'
p87
I8881
sS'Number of triggered events'
p88
I85652
sS'Number of vetoed events'
p89
I5467
sS'MainTriggerCZT'
p90
I19741
sS'MainVetoTop'
p91
I2902
ssS'./TraFiles/FarFieldPointSource_0.501MeV_Cos0.7.inc1.id1.tra'
p92
(dp93
g3
S'0.7'
p94
sS'MainTriggerCsI'
p95
I203
sS'MainTriggerSi'
p96
I71767
sg7
S'0.501'
p97
sS'MainTriggerCZTSide'
p98
I7027
sS'Not triggered events'
p99
I28233
sS'Number of triggered events'
p100
I71767
sS'Number of vetoed events'
p101
I0
sS'MainTriggerCZT'
p102
I12884
ssS'./TraFiles/FarFieldPointSource_100.000MeV_Cos0.6.inc1.id1.tra'
p103
(dp104
g3
S'0.6'
p105
sS'MainTriggerCsI'
p106
I54079
sS'MainTriggerSi'
p107
I67974
sg7
S'100.000'
p108
sS'MainTriggerCZTSide'
p109
I52109
sS'MainVetoSide'
p110
I23781
sS'Not triggered events'
p111
I6477
sS'Number of triggered events'
p112
I67974
sS'Number of vetoed events'
p113
I25549
sS'MainTriggerCZT'
p114
I63178
sS'MainVetoTop'
p115
I4993
ssS'./TraFiles/FarFieldPointSource_1.000MeV_Cos0.9.inc1.id1.tra'
p116
(dp117
g3
S'0.9'
p118
sS'MainTriggerCsI'
p119
I1515
sS'MainTriggerSi'
p120
I83458
sg7
S'1.000'
p121
sS'MainTriggerCZTSide'
p122
I10340
sS'MainVetoSide'
p123
I1529
sS'Not triggered events'
p124
I13816
sS'Number of triggered events'
p125
I83458
sS'Number of vetoed events'
p126
I2726
sS'MainTriggerCZT'
p127
I17254
sS'MainVetoTop'
p128
I1197
ssS'./TraFiles/FarFieldPointSource_1.584MeV_Cos0.8.inc1.id1.tra'
p129
(dp130
g3
S'0.8'
p131
sS'MainTriggerCsI'
p132
I3640
sS'MainTriggerSi'
p133
I85950
sg7
S'1.584'
p134
sS'MainTriggerCZTSide'
p135
I11937
sS'MainVetoSide'
p136
I2529
sS'Not triggered events'
p137
I8841
sS'Number of triggered events'
p138
I85950
sS'Number of vetoed events'
p139
I5209
sS'MainTriggerCZT'
p140
I20528
sS'MainVetoTop'
p141
I2716
ssS'./TraFiles/FarFieldPointSource_100.000MeV_Cos0.5.inc1.id1.tra'
p142
(dp143
g3
S'0.5'
p144
sS'MainTriggerCsI'
p145
I50396
sS'MainTriggerSi'
p146
I65156
sg7
S'100.000'
p147
sS'MainTriggerCZTSide'
p148
I53036
sS'MainVetoSide'
p149
I27503
sS'Not triggered events'
p150
I6065
sS'Number of triggered events'
p151
I65156
sS'Number of vetoed events'
p152
I28779
sS'MainTriggerCZT'
p153
I60126
sS'MainVetoTop'
p154
I4980
ssS'./TraFiles/FarFieldPointSource_501.187MeV_Cos1.0.inc1.id1.tra'
p155
(dp156
g3
S'1.0'
p157
sS'MainTriggerCsI'
p158
I65077
sS'MainTriggerSi'
p159
I66630
sg7
S'501.187'
p160
sS'MainTriggerCZTSide'
p161
I48799
sS'MainVetoSide'
p162
I21908
sS'Not triggered events'
p163
I6921
sS'Number of triggered events'
p164
I66630
sS'Number of vetoed events'
p165
I26449
sS'MainTriggerCZT'
p166
I65538
sS'MainVetoTop'
p167
I5823
ssS'./TraFiles/FarFieldPointSource_316.227MeV_Cos0.5.inc1.id1.tra'
p168
(dp169
g3
S'0.5'
p170
sS'MainTriggerCsI'
p171
I53692
sS'MainTriggerSi'
p172
I57848
sg7
S'316.227'
p173
sS'MainTriggerCZTSide'
p174
I51361
sS'MainVetoSide'
p175
I36803
sS'Not triggered events'
p176
I4051
sS'Number of triggered events'
p177
I57848
sS'Number of vetoed events'
p178
I38101
sS'MainTriggerCZT'
p179
I56125
sS'MainVetoTop'
p180
I5159
ssS'./TraFiles/FarFieldPointSource_0.158MeV_Cos1.0.inc1.id1.tra'
p181
(dp182
g3
S'1.0'
p183
sS'MainTriggerSi'
p184
I43304
sg7
S'0.158'
p185
sS'MainTriggerCZTSide'
p186
I1256
sS'Not triggered events'
p187
I56696
sS'Number of triggered events'
p188
I43304
sS'Number of vetoed events'
p189
I0
sS'MainTriggerCZT'
p190
I3022
ssS'./TraFiles/FarFieldPointSource_50.118MeV_Cos0.8.inc1.id1.tra'
p191
(dp192
g3
S'0.8'
p193
sS'MainTriggerCsI'
p194
I50115
sS'MainTriggerSi'
p195
I74233
sg7
S'50.118'
p196
sS'MainTriggerCZTSide'
p197
I43966
sS'MainVetoSide'
p198
I13445
sS'Not triggered events'
p199
I8172
sS'Number of triggered events'
p200
I74233
sS'Number of vetoed events'
p201
I17595
sS'MainTriggerCZT'
p202
I65802
sS'MainVetoTop'
p203
I5946
ssS'./TraFiles/FarFieldPointSource_50.118MeV_Cos0.7.inc1.id1.tra'
p204
(dp205
g3
S'0.7'
p206
sS'MainTriggerCsI'
p207
I45870
sS'MainTriggerSi'
p208
I72319
sg7
S'50.118'
p209
sS'MainTriggerCZTSide'
p210
I45937
sS'MainVetoSide'
p211
I16483
sS'Not triggered events'
p212
I7708
sS'Number of triggered events'
p213
I72319
sS'Number of vetoed events'
p214
I19973
sS'MainTriggerCZT'
p215
I63069
sS'MainVetoTop'
p216
I5749
ssS'./TraFiles/FarFieldPointSource_0.316MeV_Cos0.6.inc1.id1.tra'
p217
(dp218
g3
S'0.6'
p219
sS'MainTriggerCsI'
p220
I18
sS'MainTriggerSi'
p221
I60990
sg7
S'0.316'
p222
sS'MainTriggerCZTSide'
p223
I4539
sS'Not triggered events'
p224
I39010
sS'Number of triggered events'
p225
I60990
sS'Number of vetoed events'
p226
I0
sS'MainTriggerCZT'
p227
I8937
ssS'./TraFiles/FarFieldPointSource_3.162MeV_Cos0.8.inc1.id1.tra'
p228
(dp229
g3
S'0.8'
p230
sS'MainTriggerCsI'
p231
I7503
sS'MainTriggerSi'
p232
I85080
sg7
S'3.162'
p233
sS'MainTriggerCZTSide'
p234
I14054
sS'MainVetoSide'
p235
I3165
sS'Not triggered events'
p236
I6283
sS'Number of triggered events'
p237
I85080
sS'Number of vetoed events'
p238
I8637
sS'MainTriggerCZT'
p239
I27206
sS'MainVetoTop'
p240
I5636
ssS'./TraFiles/FarFieldPointSource_5011.872MeV_Cos0.6.inc1.id1.tra'
p241
(dp242
g3
S'0.6'
p243
sS'MainTriggerCsI'
p244
I61869
sS'MainTriggerSi'
p245
I63713
sg7
S'5011.872'
p246
sS'MainTriggerCZTSide'
p247
I13784
sS'MainVetoSide'
p248
I33155
sS'Not triggered events'
p249
I2515
sS'Number of triggered events'
p250
I63713
sS'Number of vetoed events'
p251
I33772
sS'MainTriggerCZT'
p252
I17282
sS'MainVetoTop'
p253
I6332
ssS'./TraFiles/FarFieldPointSource_3.162MeV_Cos0.7.inc1.id1.tra'
p254
(dp255
g3
S'0.7'
p256
sS'MainTriggerCsI'
p257
I6538
sS'MainTriggerSi'
p258
I85079
sg7
S'3.162'
p259
sS'MainTriggerCZTSide'
p260
I14268
sS'MainVetoSide'
p261
I3487
sS'Not triggered events'
p262
I6257
sS'Number of triggered events'
p263
I85079
sS'Number of vetoed events'
p264
I8664
sS'MainTriggerCZT'
p265
I25890
sS'MainVetoTop'
p266
I5371
ssS'./TraFiles/FarFieldPointSource_50.118MeV_Cos0.9.inc1.id1.tra'
p267
(dp268
g3
S'0.9'
p269
sS'MainTriggerCsI'
p270
I54898
sS'MainTriggerSi'
p271
I76566
sg7
S'50.118'
p272
sS'MainTriggerCZTSide'
p273
I41832
sS'MainVetoSide'
p274
I10566
sS'Not triggered events'
p275
I8148
sS'Number of triggered events'
p276
I76566
sS'Number of vetoed events'
p277
I15286
sS'MainTriggerCZT'
p278
I68983
sS'MainVetoTop'
p279
I6001
ssS'./TraFiles/FarFieldPointSource_5011.872MeV_Cos0.9.inc1.id1.tra'
p280
(dp281
g3
S'0.9'
p282
sS'MainTriggerCsI'
p283
I64827
sS'MainTriggerSi'
p284
I66023
sg7
S'5011.872'
p285
sS'MainTriggerCZTSide'
p286
I31689
sS'MainVetoSide'
p287
I28560
sS'Not triggered events'
p288
I3562
sS'Number of triggered events'
p289
I66023
sS'Number of vetoed events'
p290
I30415
sS'MainTriggerCZT'
p291
I46351
sS'MainVetoTop'
p292
I5877
ssS'./TraFiles/FarFieldPointSource_31.622MeV_Cos0.8.inc1.id1.tra'
p293
(dp294
g3
S'0.8'
p295
sS'MainTriggerCsI'
p296
I37556
sS'MainTriggerSi'
p297
I76425
sg7
S'31.622'
p298
sS'MainTriggerCZTSide'
p299
I38878
sS'MainVetoSide'
p300
I10550
sS'Not triggered events'
p301
I7927
sS'Number of triggered events'
p302
I76425
sS'Number of vetoed events'
p303
I15648
sS'MainTriggerCZT'
p304
I62612
sS'MainVetoTop'
p305
I6590
ssS'./TraFiles/FarFieldPointSource_3162.277MeV_Cos0.7.inc1.id1.tra'
p306
(dp307
g3
S'0.7'
p308
sS'MainTriggerCsI'
p309
I60200
sS'MainTriggerSi'
p310
I61996
sg7
S'3162.277'
p311
sS'MainTriggerCZTSide'
p312
I30903
sS'MainVetoSide'
p313
I33197
sS'Not triggered events'
p314
I2786
sS'Number of triggered events'
p315
I61996
sS'Number of vetoed events'
p316
I35218
sS'MainTriggerCZT'
p317
I53574
sS'MainVetoTop'
p318
I6483
ssS'./TraFiles/FarFieldPointSource_501.187MeV_Cos0.7.inc1.id1.tra'
p319
(dp320
g3
S'0.7'
p321
sS'MainTriggerCsI'
p322
I59443
sS'MainTriggerSi'
p323
I62217
sg7
S'501.187'
p324
sS'MainTriggerCZTSide'
p325
I52601
sS'MainVetoSide'
p326
I30471
sS'Not triggered events'
p327
I4968
sS'Number of triggered events'
p328
I62217
sS'Number of vetoed events'
p329
I32815
sS'MainTriggerCZT'
p330
I60747
sS'MainVetoTop'
p331
I5316
ssS'./TraFiles/FarFieldPointSource_1584.893MeV_Cos1.0.inc1.id1.tra'
p332
(dp333
g3
S'1.0'
p334
sS'MainTriggerCsI'
p335
I59946
sS'MainTriggerSi'
p336
I60807
sg7
S'1584.893'
p337
sS'MainTriggerCZTSide'
p338
I49731
sS'MainVetoSide'
p339
I28404
sS'Not triggered events'
p340
I6346
sS'Number of triggered events'
p341
I60807
sS'Number of vetoed events'
p342
I32847
sS'MainTriggerCZT'
p343
I59956
sS'MainVetoTop'
p344
I6780
ssS'./TraFiles/FarFieldPointSource_0.501MeV_Cos0.6.inc1.id1.tra'
p345
(dp346
g3
S'0.6'
p347
sS'MainTriggerCsI'
p348
I183
sS'MainTriggerSi'
p349
I71604
sg7
S'0.501'
p350
sS'MainTriggerCZTSide'
p351
I7161
sS'Not triggered events'
p352
I28396
sS'Number of triggered events'
p353
I71604
sS'Number of vetoed events'
p354
I0
sS'MainTriggerCZT'
p355
I12713
ssS'./TraFiles/FarFieldPointSource_158.489MeV_Cos0.9.inc1.id1.tra'
p356
(dp357
g3
S'0.9'
p358
sS'MainTriggerCsI'
p359
I65779
sS'MainTriggerSi'
p360
I72739
sg7
S'158.489'
p361
sS'MainTriggerCZTSide'
p362
I49400
sS'MainVetoSide'
p363
I15891
sS'Not triggered events'
p364
I7497
sS'Number of triggered events'
p365
I72739
sS'Number of vetoed events'
p366
I19764
sS'MainTriggerCZT'
p367
I69860
sS'MainVetoTop'
p368
I5273
ssS'./TraFiles/FarFieldPointSource_10.000MeV_Cos0.6.inc1.id1.tra'
p369
(dp370
g3
S'0.6'
p371
sS'MainTriggerCsI'
p372
I10691
sS'MainTriggerSi'
p373
I80380
sg7
S'10.000'
p374
sS'MainTriggerCZTSide'
p375
I23303
sS'MainVetoSide'
p376
I5127
sS'Not triggered events'
p377
I6775
sS'Number of triggered events'
p378
I80380
sS'Number of vetoed events'
p379
I12845
sS'MainTriggerCZT'
p380
I39497
sS'MainVetoTop'
p381
I8525
ssS'./TraFiles/FarFieldPointSource_0.316MeV_Cos0.8.inc1.id1.tra'
p382
(dp383
g3
S'0.8'
p384
sS'MainTriggerCsI'
p385
I29
sS'MainTriggerSi'
p386
I61328
sg7
S'0.316'
p387
sS'MainTriggerCZTSide'
p388
I4639
sS'Not triggered events'
p389
I38672
sS'Number of triggered events'
p390
I61328
sS'Number of vetoed events'
p391
I0
sS'MainTriggerCZT'
p392
I9154
ssS'./TraFiles/FarFieldPointSource_158.489MeV_Cos0.5.inc1.id1.tra'
p393
(dp394
g3
S'0.5'
p395
sS'MainTriggerCsI'
p396
I53918
sS'MainTriggerSi'
p397
I62788
sg7
S'158.489'
p398
sS'MainTriggerCZTSide'
p399
I53237
sS'MainVetoSide'
p400
I31023
sS'Not triggered events'
p401
I5098
sS'Number of triggered events'
p402
I62788
sS'Number of vetoed events'
p403
I32114
sS'MainTriggerCZT'
p404
I59740
sS'MainVetoTop'
p405
I4873
ssS'./TraFiles/FarFieldPointSource_0.316MeV_Cos0.5.inc1.id1.tra'
p406
(dp407
g3
S'0.5'
p408
sS'MainTriggerCsI'
p409
I21
sS'MainTriggerSi'
p410
I60553
sg7
S'0.316'
p411
sS'MainTriggerCZTSide'
p412
I4510
sS'Not triggered events'
p413
I39447
sS'Number of triggered events'
p414
I60553
sS'Number of vetoed events'
p415
I0
sS'MainTriggerCZT'
p416
I8864
ssS'./TraFiles/FarFieldPointSource_5011.872MeV_Cos0.5.inc1.id1.tra'
p417
(dp418
g3
S'0.5'
p419
sS'MainTriggerCsI'
p420
I57168
sS'MainTriggerSi'
p421
I59258
sg7
S'5011.872'
p422
sS'MainTriggerCZTSide'
p423
I13018
sS'MainVetoSide'
p424
I37488
sS'Not triggered events'
p425
I2788
sS'Number of triggered events'
p426
I59258
sS'Number of vetoed events'
p427
I37954
sS'MainTriggerCZT'
p428
I16172
sS'MainVetoTop'
p429
I6508
ssS'./TraFiles/FarFieldPointSource_0.158MeV_Cos0.6.inc1.id1.tra'
p430
(dp431
g3
S'0.6'
p432
sS'MainTriggerSi'
p433
I39076
sg7
S'0.158'
p434
sS'MainTriggerCZTSide'
p435
I933
sS'Not triggered events'
p436
I60924
sS'Number of triggered events'
p437
I39076
sS'Number of vetoed events'
p438
I0
sS'MainTriggerCZT'
p439
I2182
ssS'./TraFiles/FarFieldPointSource_3.162MeV_Cos0.5.inc1.id1.tra'
p440
(dp441
g3
S'0.5'
p442
sS'MainTriggerCsI'
p443
I5022
sS'MainTriggerSi'
p444
I85177
sg7
S'3.162'
p445
sS'MainTriggerCZTSide'
p446
I14634
sS'MainVetoSide'
p447
I3846
sS'Not triggered events'
p448
I6177
sS'Number of triggered events'
p449
I85177
sS'Number of vetoed events'
p450
I8646
sS'MainTriggerCZT'
p451
I24304
sS'MainVetoTop'
p452
I4986
ssS'./TraFiles/FarFieldPointSource_501.187MeV_Cos0.5.inc1.id1.tra'
p453
(dp454
g3
S'0.5'
p455
sS'MainTriggerCsI'
p456
I51842
sS'MainTriggerSi'
p457
I54429
sg7
S'501.187'
p458
sS'MainTriggerCZTSide'
p459
I49891
sS'MainVetoSide'
p460
I40349
sS'Not triggered events'
p461
I3496
sS'Number of triggered events'
p462
I54429
sS'Number of vetoed events'
p463
I42075
sS'MainTriggerCZT'
p464
I53065
sS'MainVetoTop'
p465
I5838
ssS'./TraFiles/FarFieldPointSource_1000.000MeV_Cos0.5.inc1.id1.tra'
p466
(dp467
g3
S'0.5'
p468
sS'MainTriggerCsI'
p469
I46234
sS'MainTriggerSi'
p470
I48181
sg7
S'1000.000'
p471
sS'MainTriggerCZTSide'
p472
I45675
sS'MainVetoSide'
p473
I46146
sS'Not triggered events'
p474
I2941
sS'Number of triggered events'
p475
I48181
sS'Number of vetoed events'
p476
I48878
sS'MainTriggerCZT'
p477
I46859
sS'MainVetoTop'
p478
I7765
ssS'./TraFiles/FarFieldPointSource_10.000MeV_Cos1.0.inc1.id1.tra'
p479
(dp480
g3
S'1.0'
p481
sS'MainTriggerCsI'
p482
I18402
sS'MainTriggerSi'
p483
I80753
sg7
S'10.000'
p484
sS'MainTriggerCZTSide'
p485
I20740
sS'MainVetoSide'
p486
I3051
sS'Not triggered events'
p487
I7662
sS'Number of triggered events'
p488
I80753
sS'Number of vetoed events'
p489
I11585
sS'MainTriggerCZT'
p490
I48967
sS'MainVetoTop'
p491
I9194
ssS'./TraFiles/FarFieldPointSource_3162.277MeV_Cos0.6.inc1.id1.tra'
p492
(dp493
g3
S'0.6'
p494
sS'MainTriggerCsI'
p495
I58711
sS'MainTriggerSi'
p496
I60453
sg7
S'3162.277'
p497
sS'MainTriggerCZTSide'
p498
I21700
sS'MainVetoSide'
p499
I35835
sS'Not triggered events'
p500
I2552
sS'Number of triggered events'
p501
I60453
sS'Number of vetoed events'
p502
I36995
sS'MainTriggerCZT'
p503
I47372
sS'MainVetoTop'
p504
I6479
ssS'./TraFiles/FarFieldPointSource_0.501MeV_Cos0.8.inc1.id1.tra'
p505
(dp506
g3
S'0.8'
p507
sS'MainTriggerCsI'
p508
I219
sS'MainTriggerSi'
p509
I71719
sg7
S'0.501'
p510
sS'MainTriggerCZTSide'
p511
I7005
sS'Not triggered events'
p512
I28281
sS'Number of triggered events'
p513
I71719
sS'Number of vetoed events'
p514
I0
sS'MainTriggerCZT'
p515
I12780
ssS'./TraFiles/FarFieldPointSource_1000.000MeV_Cos1.0.inc1.id1.tra'
p516
(dp517
g3
S'1.0'
p518
sS'MainTriggerCsI'
p519
I61279
sS'MainTriggerSi'
p520
I62297
sg7
S'1000.000'
p521
sS'MainTriggerCZTSide'
p522
I48664
sS'MainVetoSide'
p523
I26745
sS'Not triggered events'
p524
I6646
sS'Number of triggered events'
p525
I62297
sS'Number of vetoed events'
p526
I31057
sS'MainTriggerCZT'
p527
I61375
sS'MainVetoTop'
p528
I6045
ssS'./TraFiles/FarFieldPointSource_0.158MeV_Cos0.8.inc1.id1.tra'
p529
(dp530
g3
S'0.8'
p531
sS'MainTriggerSi'
p532
I39571
sg7
S'0.158'
p533
sS'MainTriggerCZTSide'
p534
I997
sS'Not triggered events'
p535
I60429
sS'Number of triggered events'
p536
I39571
sS'Number of vetoed events'
p537
I0
sS'MainTriggerCZT'
p538
I2268
ssS'./TraFiles/FarFieldPointSource_10.000MeV_Cos0.5.inc1.id1.tra'
p539
(dp540
g3
S'0.5'
p541
sS'MainTriggerCsI'
p542
I9171
sS'MainTriggerSi'
p543
I80372
sg7
S'10.000'
p544
sS'MainTriggerCZTSide'
p545
I23470
sS'MainVetoSide'
p546
I5588
sS'Not triggered events'
p547
I6617
sS'Number of triggered events'
p548
I80372
sS'Number of vetoed events'
p549
I13011
sS'MainTriggerCZT'
p550
I37450
sS'MainVetoTop'
p551
I8304
ssS'./TraFiles/FarFieldPointSource_5.011MeV_Cos1.0.inc1.id1.tra'
p552
(dp553
g3
S'1.0'
p554
sS'MainTriggerCsI'
p555
I13288
sS'MainTriggerSi'
p556
I82715
sg7
S'5.011'
p557
sS'MainTriggerCZTSide'
p558
I15277
sS'MainVetoSide'
p559
I2540
sS'Not triggered events'
p560
I6167
sS'Number of triggered events'
p561
I82715
sS'Number of vetoed events'
p562
I11118
sS'MainTriggerCZT'
p563
I36200
sS'MainVetoTop'
p564
I9021
ssS'./TraFiles/FarFieldPointSource_1.000MeV_Cos0.7.inc1.id1.tra'
p565
(dp566
g3
S'0.7'
p567
sS'MainTriggerCsI'
p568
I1340
sS'MainTriggerSi'
p569
I82683
sg7
S'1.000'
p570
sS'MainTriggerCZTSide'
p571
I10027
sS'MainVetoSide'
p572
I1568
sS'Not triggered events'
p573
I14137
sS'Number of triggered events'
p574
I82683
sS'Number of vetoed events'
p575
I3180
sS'MainTriggerCZT'
p576
I16869
sS'MainVetoTop'
p577
I1612
ssS'./TraFiles/FarFieldPointSource_15.848MeV_Cos0.5.inc1.id1.tra'
p578
(dp579
g3
S'0.5'
p580
sS'MainTriggerCsI'
p581
I13530
sS'MainTriggerSi'
p582
I78103
sg7
S'15.848'
p583
sS'MainTriggerCZTSide'
p584
I30605
sS'MainVetoSide'
p585
I8293
sS'Not triggered events'
p586
I6952
sS'Number of triggered events'
p587
I78103
sS'Number of vetoed events'
p588
I14945
sS'MainTriggerCZT'
p589
I44980
sS'MainVetoTop'
p590
I7865
ssS'./TraFiles/FarFieldPointSource_0.158MeV_Cos0.7.inc1.id1.tra'
p591
(dp592
g3
S'0.7'
p593
sS'MainTriggerSi'
p594
I38855
sg7
S'0.158'
p595
sS'MainTriggerCZTSide'
p596
I947
sS'Not triggered events'
p597
I61145
sS'Number of triggered events'
p598
I38855
sS'Number of vetoed events'
p599
I0
sS'MainTriggerCZT'
p600
I2123
ssS'./TraFiles/FarFieldPointSource_501.187MeV_Cos0.6.inc1.id1.tra'
p601
(dp602
g3
S'0.6'
p603
sS'MainTriggerCsI'
p604
I56042
sS'MainTriggerSi'
p605
I58850
sg7
S'501.187'
p606
sS'MainTriggerCZTSide'
p607
I51788
sS'MainVetoSide'
p608
I35180
sS'Not triggered events'
p609
I4140
sS'Number of triggered events'
p610
I58850
sS'Number of vetoed events'
p611
I37010
sS'MainTriggerCZT'
p612
I57438
sS'MainVetoTop'
p613
I5426
ssS'./TraFiles/FarFieldPointSource_1584.893MeV_Cos0.7.inc1.id1.tra'
p614
(dp615
g3
S'0.7'
p616
sS'MainTriggerCsI'
p617
I53156
sS'MainTriggerSi'
p618
I55169
sg7
S'1584.893'
p619
sS'MainTriggerCZTSide'
p620
I50033
sS'MainVetoSide'
p621
I37858
sS'Not triggered events'
p622
I3465
sS'Number of triggered events'
p623
I55169
sS'Number of vetoed events'
p624
I41366
sS'MainTriggerCZT'
p625
I53800
sS'MainVetoTop'
p626
I7672
ssS'./TraFiles/FarFieldPointSource_1000.000MeV_Cos0.8.inc1.id1.tra'
p627
(dp628
g3
S'0.8'
p629
sS'MainTriggerCsI'
p630
I58699
sS'MainTriggerSi'
p631
I60700
sg7
S'1000.000'
p632
sS'MainTriggerCZTSide'
p633
I52102
sS'MainVetoSide'
p634
I31222
sS'Not triggered events'
p635
I4859
sS'Number of triggered events'
p636
I60700
sS'Number of vetoed events'
p637
I34441
sS'MainTriggerCZT'
p638
I59362
sS'MainVetoTop'
p639
I5876
ssS'./TraFiles/FarFieldPointSource_316.227MeV_Cos0.6.inc1.id1.tra'
p640
(dp641
g3
S'0.6'
p642
sS'MainTriggerCsI'
p643
I57914
sS'MainTriggerSi'
p644
I62031
sg7
S'316.227'
p645
sS'MainTriggerCZTSide'
p646
I52954
sS'MainVetoSide'
p647
I31733
sS'Not triggered events'
p648
I4676
sS'Number of triggered events'
p649
I62031
sS'Number of vetoed events'
p650
I33293
sS'MainTriggerCZT'
p651
I60208
sS'MainVetoTop'
p652
I5081
ssS'./TraFiles/FarFieldPointSource_5.011MeV_Cos0.7.inc1.id1.tra'
p653
(dp654
g3
S'0.7'
p655
sS'MainTriggerCsI'
p656
I8427
sS'MainTriggerSi'
p657
I82904
sg7
S'5.011'
p658
sS'MainTriggerCZTSide'
p659
I16678
sS'MainVetoSide'
p660
I3803
sS'Not triggered events'
p661
I6306
sS'Number of triggered events'
p662
I82904
sS'Number of vetoed events'
p663
I10790
sS'MainTriggerCZT'
p664
I30844
sS'MainVetoTop'
p665
I7428
ssS'./TraFiles/FarFieldPointSource_316.227MeV_Cos0.9.inc1.id1.tra'
p666
(dp667
g3
S'0.9'
p668
sS'MainTriggerCsI'
p669
I65590
sS'MainTriggerSi'
p670
I69006
sg7
S'316.227'
p671
sS'MainTriggerCZTSide'
p672
I50988
sS'MainVetoSide'
p673
I20853
sS'Not triggered events'
p674
I6615
sS'Number of triggered events'
p675
I69006
sS'Number of vetoed events'
p676
I24379
sS'MainTriggerCZT'
p677
I67211
sS'MainVetoTop'
p678
I5006
ssS'./TraFiles/FarFieldPointSource_15.848MeV_Cos0.8.inc1.id1.tra'
p679
(dp680
g3
S'0.8'
p681
sS'MainTriggerCsI'
p682
I19987
sS'MainTriggerSi'
p683
I79721
sg7
S'15.848'
p684
sS'MainTriggerCZTSide'
p685
I28967
sS'MainVetoSide'
p686
I5550
sS'Not triggered events'
p687
I7569
sS'Number of triggered events'
p688
I79721
sS'Number of vetoed events'
p689
I12710
sS'MainTriggerCZT'
p690
I52228
sS'MainVetoTop'
p691
I7936
ssS'./TraFiles/FarFieldPointSource_5.011MeV_Cos0.8.inc1.id1.tra'
p692
(dp693
g3
S'0.8'
p694
sS'MainTriggerCsI'
p695
I9748
sS'MainTriggerSi'
p696
I82758
sg7
S'5.011'
p697
sS'MainTriggerCZTSide'
p698
I16341
sS'MainVetoSide'
p699
I3482
sS'Not triggered events'
p700
I6372
sS'Number of triggered events'
p701
I82758
sS'Number of vetoed events'
p702
I10870
sS'MainTriggerCZT'
p703
I32395
sS'MainVetoTop'
p704
I7760
ssS'./TraFiles/FarFieldPointSource_100.000MeV_Cos0.9.inc1.id1.tra'
p705
(dp706
g3
S'0.9'
p707
sS'MainTriggerCsI'
p708
I63761
sS'MainTriggerSi'
p709
I74240
sg7
S'100.000'
p710
sS'MainTriggerCZTSide'
p711
I47022
sS'MainVetoSide'
p712
I13623
sS'Not triggered events'
p713
I8177
sS'Number of triggered events'
p714
I74240
sS'Number of vetoed events'
p715
I17583
sS'MainTriggerCZT'
p716
I70072
sS'MainVetoTop'
p717
I5376
ssS'./TraFiles/FarFieldPointSource_3162.277MeV_Cos0.8.inc1.id1.tra'
p718
(dp719
g3
S'0.8'
p720
sS'MainTriggerCsI'
p721
I59416
sS'MainTriggerSi'
p722
I61058
sg7
S'3162.277'
p723
sS'MainTriggerCZTSide'
p724
I41748
sS'MainVetoSide'
p725
I32836
sS'Not triggered events'
p726
I3387
sS'Number of triggered events'
p727
I61058
sS'Number of vetoed events'
p728
I35555
sS'MainTriggerCZT'
p729
I56220
sS'MainVetoTop'
p730
I6700
ssS'./TraFiles/FarFieldPointSource_1584.893MeV_Cos0.8.inc1.id1.tra'
p731
(dp732
g3
S'0.8'
p733
sS'MainTriggerCsI'
p734
I56546
sS'MainTriggerSi'
p735
I58313
sg7
S'1584.893'
p736
sS'MainTriggerCZTSide'
p737
I51411
sS'MainVetoSide'
p738
I33770
sS'Not triggered events'
p739
I4457
sS'Number of triggered events'
p740
I58313
sS'Number of vetoed events'
p741
I37230
sS'MainTriggerCZT'
p742
I57002
sS'MainVetoTop'
p743
I6759
ssS'./TraFiles/FarFieldPointSource_31.622MeV_Cos0.5.inc1.id1.tra'
p744
(dp745
g3
S'0.5'
p746
sS'MainTriggerCsI'
p747
I25830
sS'MainTriggerSi'
p748
I72192
sg7
S'31.622'
p749
sS'MainTriggerCZTSide'
p750
I42829
sS'MainVetoSide'
p751
I16572
sS'Not triggered events'
p752
I7041
sS'Number of triggered events'
p753
I72192
sS'Number of vetoed events'
p754
I20767
sS'MainTriggerCZT'
p755
I54379
sS'MainVetoTop'
p756
I6563
ssS'./TraFiles/FarFieldPointSource_0.316MeV_Cos1.0.inc1.id1.tra'
p757
(dp758
g3
S'1.0'
p759
sS'MainTriggerCsI'
p760
I34
sS'MainTriggerSi'
p761
I65092
sg7
S'0.316'
p762
sS'MainTriggerCZTSide'
p763
I5241
sS'Not triggered events'
p764
I34908
sS'Number of triggered events'
p765
I65092
sS'Number of vetoed events'
p766
I0
sS'MainTriggerCZT'
p767
I10971
ssS'./TraFiles/FarFieldPointSource_3162.277MeV_Cos0.5.inc1.id1.tra'
p768
(dp769
g3
S'0.5'
p770
sS'MainTriggerCsI'
p771
I54333
sS'MainTriggerSi'
p772
I56020
sg7
S'3162.277'
p773
sS'MainTriggerCZTSide'
p774
I16859
sS'MainVetoSide'
p775
I40319
sS'Not triggered events'
p776
I2752
sS'Number of triggered events'
p777
I56020
sS'Number of vetoed events'
p778
I41228
sS'MainTriggerCZT'
p779
I38790
sS'MainVetoTop'
p780
I6903
ssS'./TraFiles/FarFieldPointSource_3.162MeV_Cos1.0.inc1.id1.tra'
p781
(dp782
g3
S'1.0'
p783
sS'MainTriggerCsI'
p784
I10709
sS'MainTriggerSi'
p785
I86239
sg7
S'3.162'
p786
sS'MainTriggerCZTSide'
p787
I13464
sS'MainVetoSide'
p788
I2010
sS'Not triggered events'
p789
I5677
sS'Number of triggered events'
p790
I86239
sS'Number of vetoed events'
p791
I8084
sS'MainTriggerCZT'
p792
I30738
sS'MainVetoTop'
p793
I6258
ssS'./TraFiles/FarFieldPointSource_1000.000MeV_Cos0.7.inc1.id1.tra'
p794
(dp795
g3
S'0.7'
p796
sS'MainTriggerCsI'
p797
I56144
sS'MainTriggerSi'
p798
I58265
sg7
S'1000.000'
p799
sS'MainTriggerCZTSide'
p800
I51688
sS'MainVetoSide'
p801
I34761
sS'Not triggered events'
p802
I4101
sS'Number of triggered events'
p803
I58265
sS'Number of vetoed events'
p804
I37634
sS'MainTriggerCZT'
p805
I56956
sS'MainVetoTop'
p806
I6303
ssS'./TraFiles/FarFieldPointSource_0.158MeV_Cos0.9.inc1.id1.tra'
p807
(dp808
g3
S'0.9'
p809
sS'MainTriggerSi'
p810
I39915
sg7
S'0.158'
p811
sS'MainTriggerCZTSide'
p812
I970
sS'Not triggered events'
p813
I60085
sS'Number of triggered events'
p814
I39915
sS'Number of vetoed events'
p815
I0
sS'MainTriggerCZT'
p816
I2439
ssS'./TraFiles/FarFieldPointSource_1.000MeV_Cos1.0.inc1.id1.tra'
p817
(dp818
g3
S'1.0'
p819
sS'MainTriggerCsI'
p820
I1802
sS'MainTriggerSi'
p821
I86056
sg7
S'1.000'
p822
sS'MainTriggerCZTSide'
p823
I11041
sS'MainVetoSide'
p824
I717
sS'Not triggered events'
p825
I12203
sS'Number of triggered events'
p826
I86056
sS'Number of vetoed events'
p827
I1741
sS'MainTriggerCZT'
p828
I18443
sS'MainVetoTop'
p829
I1024
ssS'./TraFiles/FarFieldPointSource_3.162MeV_Cos0.9.inc1.id1.tra'
p830
(dp831
g3
S'0.9'
p832
sS'MainTriggerCsI'
p833
I8787
sS'MainTriggerSi'
p834
I84951
sg7
S'3.162'
p835
sS'MainTriggerCZTSide'
p836
I13935
sS'MainVetoSide'
p837
I2915
sS'Not triggered events'
p838
I6418
sS'Number of triggered events'
p839
I84951
sS'Number of vetoed events'
p840
I8631
sS'MainTriggerCZT'
p841
I28179
sS'MainVetoTop'
p842
I5912
ssS'./TraFiles/FarFieldPointSource_5011.872MeV_Cos0.7.inc1.id1.tra'
p843
(dp844
g3
S'0.7'
p845
sS'MainTriggerCsI'
p846
I64934
sS'MainTriggerSi'
p847
I66742
sg7
S'5011.872'
p848
sS'MainTriggerCZTSide'
p849
I16815
sS'MainVetoSide'
p850
I29863
sS'Not triggered events'
p851
I2327
sS'Number of triggered events'
p852
I66742
sS'Number of vetoed events'
p853
I30931
sS'MainTriggerCZT'
p854
I22273
sS'MainVetoTop'
p855
I5799
ssS'./TraFiles/FarFieldPointSource_31.622MeV_Cos0.6.inc1.id1.tra'
p856
(dp857
g3
S'0.6'
p858
sS'MainTriggerCsI'
p859
I29562
sS'MainTriggerSi'
p860
I73185
sg7
S'31.622'
p861
sS'MainTriggerCZTSide'
p862
I41374
sS'MainVetoSide'
p863
I14826
sS'Not triggered events'
p864
I7503
sS'Number of triggered events'
p865
I73185
sS'Number of vetoed events'
p866
I19312
sS'MainTriggerCZT'
p867
I56912
sS'MainVetoTop'
p868
I6543
ssS'./TraFiles/FarFieldPointSource_0.501MeV_Cos0.5.inc1.id1.tra'
p869
(dp870
g3
S'0.5'
p871
sS'MainTriggerCsI'
p872
I176
sS'MainTriggerSi'
p873
I71682
sg7
S'0.501'
p874
sS'MainTriggerCZTSide'
p875
I7145
sS'Not triggered events'
p876
I28318
sS'Number of triggered events'
p877
I71682
sS'Number of vetoed events'
p878
I0
sS'MainTriggerCZT'
p879
I12816
ssS'./TraFiles/FarFieldPointSource_158.489MeV_Cos1.0.inc1.id1.tra'
p880
(dp881
g3
S'1.0'
p882
sS'MainTriggerCsI'
p883
I68343
sS'MainTriggerSi'
p884
I74337
sg7
S'158.489'
p885
sS'MainTriggerCZTSide'
p886
I47330
sS'MainVetoSide'
p887
I12723
sS'Not triggered events'
p888
I8019
sS'Number of triggered events'
p889
I74337
sS'Number of vetoed events'
p890
I17644
sS'MainTriggerCZT'
p891
I72265
sS'MainVetoTop'
p892
I5821
ssS'./TraFiles/FarFieldPointSource_158.489MeV_Cos0.7.inc1.id1.tra'
p893
(dp894
g3
S'0.7'
p895
sS'MainTriggerCsI'
p896
I60667
sS'MainTriggerSi'
p897
I68648
sg7
S'158.489'
p898
sS'MainTriggerCZTSide'
p899
I52492
sS'MainVetoSide'
p900
I22671
sS'Not triggered events'
p901
I6465
sS'Number of triggered events'
p902
I68648
sS'Number of vetoed events'
p903
I24887
sS'MainTriggerCZT'
p904
I65534
sS'MainVetoTop'
p905
I4829
ssS'./TraFiles/FarFieldPointSource_50.118MeV_Cos0.6.inc1.id1.tra'
p906
(dp907
g3
S'0.6'
p908
sS'MainTriggerCsI'
p909
I41787
sS'MainTriggerSi'
p910
I70477
sg7
S'50.118'
p911
sS'MainTriggerCZTSide'
p912
I47189
sS'MainVetoSide'
p913
I19274
sS'Not triggered events'
p914
I7369
sS'Number of triggered events'
p915
I70477
sS'Number of vetoed events'
p916
I22154
sS'MainTriggerCZT'
p917
I60682
sS'MainVetoTop'
p918
I5681
ssS'./TraFiles/FarFieldPointSource_158.489MeV_Cos0.8.inc1.id1.tra'
p919
(dp920
g3
S'0.8'
p921
sS'MainTriggerCsI'
p922
I62927
sS'MainTriggerSi'
p923
I70276
sg7
S'158.489'
p924
sS'MainTriggerCZTSide'
p925
I50690
sS'MainVetoSide'
p926
I19544
sS'Not triggered events'
p927
I7181
sS'Number of triggered events'
p928
I70276
sS'Number of vetoed events'
p929
I22543
sS'MainTriggerCZT'
p930
I67326
sS'MainVetoTop'
p931
I5048
ssS'./TraFiles/FarFieldPointSource_15.848MeV_Cos1.0.inc1.id1.tra'
p932
(dp933
g3
S'1.0'
p934
sS'MainTriggerCsI'
p935
I26343
sS'MainTriggerSi'
p936
I80454
sg7
S'15.848'
p937
sS'MainTriggerCZTSide'
p938
I26431
sS'MainVetoSide'
p939
I3632
sS'Not triggered events'
p940
I8345
sS'Number of triggered events'
p941
I80454
sS'Number of vetoed events'
p942
I11201
sS'MainTriggerCZT'
p943
I58776
sS'MainVetoTop'
p944
I8196
ssS'./TraFiles/FarFieldPointSource_1.000MeV_Cos0.8.inc1.id1.tra'
p945
(dp946
g3
S'0.8'
p947
sS'MainTriggerCsI'
p948
I1454
sS'MainTriggerSi'
p949
I82964
sg7
S'1.000'
p950
sS'MainTriggerCZTSide'
p951
I10365
sS'MainVetoSide'
p952
I1686
sS'Not triggered events'
p953
I14009
sS'Number of triggered events'
p954
I82964
sS'Number of vetoed events'
p955
I3027
sS'MainTriggerCZT'
p956
I16942
sS'MainVetoTop'
p957
I1341
ssS'./TraFiles/FarFieldPointSource_0.501MeV_Cos0.9.inc1.id1.tra'
p958
(dp959
g3
S'0.9'
p960
sS'MainTriggerCsI'
p961
I222
sS'MainTriggerSi'
p962
I71951
sg7
S'0.501'
p963
sS'MainTriggerCZTSide'
p964
I7019
sS'Not triggered events'
p965
I28049
sS'Number of triggered events'
p966
I71951
sS'Number of vetoed events'
p967
I0
sS'MainTriggerCZT'
p968
I13204
ssS'./TraFiles/FarFieldPointSource_3162.277MeV_Cos1.0.inc1.id1.tra'
p969
(dp970
g3
S'1.0'
p971
sS'MainTriggerCsI'
p972
I59377
sS'MainTriggerSi'
p973
I60007
sg7
S'3162.277'
p974
sS'MainTriggerCZTSide'
p975
I50831
sS'MainVetoSide'
p976
I30435
sS'Not triggered events'
p977
I5442
sS'Number of triggered events'
p978
I60007
sS'Number of vetoed events'
p979
I34551
sS'MainTriggerCZT'
p980
I58929
sS'MainVetoTop'
p981
I7910
ssS'./TraFiles/FarFieldPointSource_50.118MeV_Cos1.0.inc1.id1.tra'
p982
(dp983
g3
S'1.0'
p984
sS'MainTriggerCsI'
p985
I59639
sS'MainTriggerSi'
p986
I78398
sg7
S'50.118'
p987
sS'MainTriggerCZTSide'
p988
I38810
sS'MainVetoSide'
p989
I7047
sS'Not triggered events'
p990
I8873
sS'Number of triggered events'
p991
I78398
sS'Number of vetoed events'
p992
I12729
sS'MainTriggerCZT'
p993
I72140
sS'MainVetoTop'
p994
I6431
ssS'./TraFiles/FarFieldPointSource_1584.893MeV_Cos0.6.inc1.id1.tra'
p995
(dp996
g3
S'0.6'
p997
sS'MainTriggerCsI'
p998
I48051
sS'MainTriggerSi'
p999
I49927
sg7
S'1584.893'
p1000
sS'MainTriggerCZTSide'
p1001
I46674
sS'MainVetoSide'
p1002
I43617
sS'Not triggered events'
p1003
I3037
sS'Number of triggered events'
p1004
I49927
sS'Number of vetoed events'
p1005
I47036
sS'MainTriggerCZT'
p1006
I48673
sS'MainVetoTop'
p1007
I8856
ssS'./TraFiles/FarFieldPointSource_100.000MeV_Cos0.7.inc1.id1.tra'
p1008
(dp1009
g3
S'0.7'
p1010
sS'MainTriggerCsI'
p1011
I57636
sS'MainTriggerSi'
p1012
I70087
sg7
S'100.000'
p1013
sS'MainTriggerCZTSide'
p1014
I50759
sS'MainVetoSide'
p1015
I20175
sS'Not triggered events'
p1016
I7231
sS'Number of triggered events'
p1017
I70087
sS'Number of vetoed events'
p1018
I22682
sS'MainTriggerCZT'
p1019
I65441
sS'MainVetoTop'
p1020
I5119
ssS'./TraFiles/FarFieldPointSource_1.584MeV_Cos0.5.inc1.id1.tra'
p1021
(dp1022
g3
S'0.5'
p1023
sS'MainTriggerCsI'
p1024
I2633
sS'MainTriggerSi'
p1025
I85882
sg7
S'1.584'
p1026
sS'MainTriggerCZTSide'
p1027
I11947
sS'MainVetoSide'
p1028
I2525
sS'Not triggered events'
p1029
I8867
sS'Number of triggered events'
p1030
I85882
sS'Number of vetoed events'
p1031
I5251
sS'MainTriggerCZT'
p1032
I19478
sS'MainVetoTop'
p1033
I2762
ssS'./TraFiles/FarFieldPointSource_15.848MeV_Cos0.9.inc1.id1.tra'
p1034
(dp1035
g3
S'0.9'
p1036
sS'MainTriggerCsI'
p1037
I22925
sS'MainTriggerSi'
p1038
I80285
sg7
S'15.848'
p1039
sS'MainTriggerCZTSide'
p1040
I27913
sS'MainVetoSide'
p1041
I4623
sS'Not triggered events'
p1042
I7948
sS'Number of triggered events'
p1043
I80285
sS'Number of vetoed events'
p1044
I11767
sS'MainTriggerCZT'
p1045
I55414
sS'MainVetoTop'
p1046
I7876
ssS'./TraFiles/FarFieldPointSource_316.227MeV_Cos0.8.inc1.id1.tra'
p1047
(dp1048
g3
S'0.8'
p1049
sS'MainTriggerCsI'
p1050
I63470
sS'MainTriggerSi'
p1051
I67266
sg7
S'316.227'
p1052
sS'MainTriggerCZTSide'
p1053
I52204
sS'MainVetoSide'
p1054
I23877
sS'Not triggered events'
p1055
I6047
sS'Number of triggered events'
p1056
I67266
sS'Number of vetoed events'
p1057
I26687
sS'MainTriggerCZT'
p1058
I65382
sS'MainVetoTop'
p1059
I4970
ssS'./TraFiles/FarFieldPointSource_1584.893MeV_Cos0.9.inc1.id1.tra'
p1060
(dp1061
g3
S'0.9'
p1062
sS'MainTriggerCsI'
p1063
I58209
sS'MainTriggerSi'
p1064
I59649
sg7
S'1584.893'
p1065
sS'MainTriggerCZTSide'
p1066
I50907
sS'MainVetoSide'
p1067
I31372
sS'Not triggered events'
p1068
I5293
sS'Number of triggered events'
p1069
I59649
sS'Number of vetoed events'
p1070
I35058
sS'MainTriggerCZT'
p1071
I58447
sS'MainVetoTop'
p1072
I6332
ssS'./TraFiles/FarFieldPointSource_5.011MeV_Cos0.6.inc1.id1.tra'
p1073
(dp1074
g3
S'0.6'
p1075
sS'MainTriggerCsI'
p1076
I7461
sS'MainTriggerSi'
p1077
I83070
sg7
S'5.011'
p1078
sS'MainTriggerCZTSide'
p1079
I16934
sS'MainVetoSide'
p1080
I4009
sS'Not triggered events'
p1081
I6206
sS'Number of triggered events'
p1082
I83070
sS'Number of vetoed events'
p1083
I10724
sS'MainTriggerCZT'
p1084
I29624
sS'MainVetoTop'
p1085
I7122
ssS'./TraFiles/FarFieldPointSource_100.000MeV_Cos0.8.inc1.id1.tra'
p1086
(dp1087
g3
S'0.8'
p1088
sS'MainTriggerCsI'
p1089
I60759
sS'MainTriggerSi'
p1090
I72368
sg7
S'100.000'
p1091
sS'MainTriggerCZTSide'
p1092
I49139
sS'MainVetoSide'
p1093
I16745
sS'Not triggered events'
p1094
I7625
sS'Number of triggered events'
p1095
I72368
sS'Number of vetoed events'
p1096
I20007
sS'MainTriggerCZT'
p1097
I67772
sS'MainVetoTop'
p1098
I5285
ssS'./TraFiles/FarFieldPointSource_3162.277MeV_Cos0.9.inc1.id1.tra'
p1099
(dp1100
g3
S'0.9'
p1101
sS'MainTriggerCsI'
p1102
I58189
sS'MainTriggerSi'
p1103
I59420
sg7
S'3162.277'
p1104
sS'MainTriggerCZTSide'
p1105
I47740
sS'MainVetoSide'
p1106
I33027
sS'Not triggered events'
p1107
I4257
sS'Number of triggered events'
p1108
I59420
sS'Number of vetoed events'
p1109
I36323
sS'MainTriggerCZT'
p1110
I56784
sS'MainVetoTop'
p1111
I7121
ssS'./TraFiles/FarFieldPointSource_5.011MeV_Cos0.5.inc1.id1.tra'
p1112
(dp1113
g3
S'0.5'
p1114
sS'MainTriggerCsI'
p1115
I6498
sS'MainTriggerSi'
p1116
I83252
sg7
S'5.011'
p1117
sS'MainTriggerCZTSide'
p1118
I16857
sS'MainVetoSide'
p1119
I4177
sS'Not triggered events'
p1120
I6188
sS'Number of triggered events'
p1121
I83252
sS'Number of vetoed events'
p1122
I10560
sS'MainTriggerCZT'
p1123
I28599
sS'MainVetoTop'
p1124
I6798
ssS'./TraFiles/FarFieldPointSource_10.000MeV_Cos0.9.inc1.id1.tra'
p1125
(dp1126
g3
S'0.9'
p1127
sS'MainTriggerCsI'
p1128
I15788
sS'MainTriggerSi'
p1129
I80752
sg7
S'10.000'
p1130
sS'MainTriggerCZTSide'
p1131
I21905
sS'MainVetoSide'
p1132
I3774
sS'Not triggered events'
p1133
I7357
sS'Number of triggered events'
p1134
I80752
sS'Number of vetoed events'
p1135
I11891
sS'MainTriggerCZT'
p1136
I45822
sS'MainVetoTop'
p1137
I8724
ssS'./TraFiles/FarFieldPointSource_15.848MeV_Cos0.7.inc1.id1.tra'
p1138
(dp1139
g3
S'0.7'
p1140
sS'MainTriggerCsI'
p1141
I17676
sS'MainTriggerSi'
p1142
I79100
sg7
S'15.848'
p1143
sS'MainTriggerCZTSide'
p1144
I29559
sS'MainVetoSide'
p1145
I6553
sS'Not triggered events'
p1146
I7415
sS'Number of triggered events'
p1147
I79100
sS'Number of vetoed events'
p1148
I13485
sS'MainTriggerCZT'
p1149
I49766
sS'MainVetoTop'
p1150
I7868
ssS'./TraFiles/FarFieldPointSource_31.622MeV_Cos1.0.inc1.id1.tra'
p1151
(dp1152
g3
S'1.0'
p1153
sS'MainTriggerCsI'
p1154
I46769
sS'MainTriggerSi'
p1155
I79000
sg7
S'31.622'
p1156
sS'MainTriggerCZTSide'
p1157
I33773
sS'MainVetoSide'
p1158
I5627
sS'Not triggered events'
p1159
I9061
sS'Number of triggered events'
p1160
I79000
sS'Number of vetoed events'
p1161
I11939
sS'MainTriggerCZT'
p1162
I68902
sS'MainVetoTop'
p1163
I7045
ssS'./TraFiles/FarFieldPointSource_316.227MeV_Cos0.7.inc1.id1.tra'
p1164
(dp1165
g3
S'0.7'
p1166
sS'MainTriggerCsI'
p1167
I61071
sS'MainTriggerSi'
p1168
I65088
sg7
S'316.227'
p1169
sS'MainTriggerCZTSide'
p1170
I52995
sS'MainVetoSide'
p1171
I27219
sS'Not triggered events'
p1172
I5438
sS'Number of triggered events'
p1173
I65088
sS'Number of vetoed events'
p1174
I29474
sS'MainTriggerCZT'
p1175
I63232
sS'MainVetoTop'
p1176
I4934
ssS'./TraFiles/FarFieldPointSource_15.848MeV_Cos0.6.inc1.id1.tra'
p1177
(dp1178
g3
S'0.6'
p1179
sS'MainTriggerCsI'
p1180
I15559
sS'MainTriggerSi'
p1181
I78711
sg7
S'15.848'
p1182
sS'MainTriggerCZTSide'
p1183
I30116
sS'MainVetoSide'
p1184
I7441
sS'Not triggered events'
p1185
I7112
sS'Number of triggered events'
p1186
I78711
sS'Number of vetoed events'
p1187
I14177
sS'MainTriggerCZT'
p1188
I47273
sS'MainVetoTop'
p1189
I7784
ssS'./TraFiles/FarFieldPointSource_5.011MeV_Cos0.9.inc1.id1.tra'
p1190
(dp1191
g3
S'0.9'
p1192
sS'MainTriggerCsI'
p1193
I11144
sS'MainTriggerSi'
p1194
I82463
sg7
S'5.011'
p1195
sS'MainTriggerCZTSide'
p1196
I15759
sS'MainVetoSide'
p1197
I3265
sS'Not triggered events'
p1198
I6250
sS'Number of triggered events'
p1199
I82463
sS'Number of vetoed events'
p1200
I11287
sS'MainTriggerCZT'
p1201
I33713
sS'MainVetoTop'
p1202
I8458
ssS'./TraFiles/FarFieldPointSource_1584.893MeV_Cos0.5.inc1.id1.tra'
p1203
(dp1204
g3
S'0.5'
p1205
sS'MainTriggerCsI'
p1206
I42085
sS'MainTriggerSi'
p1207
I43816
sg7
S'1584.893'
p1208
sS'MainTriggerCZTSide'
p1209
I41425
sS'MainVetoSide'
p1210
I49897
sS'Not triggered events'
p1211
I2850
sS'Number of triggered events'
p1212
I43816
sS'Number of vetoed events'
p1213
I53334
sS'MainTriggerCZT'
p1214
I42464
sS'MainVetoTop'
p1215
I9730
ssS'./TraFiles/FarFieldPointSource_1.584MeV_Cos0.9.inc1.id1.tra'
p1216
(dp1217
g3
S'0.9'
p1218
sS'MainTriggerCsI'
p1219
I4020
sS'MainTriggerSi'
p1220
I86408
sg7
S'1.584'
p1221
sS'MainTriggerCZTSide'
p1222
I12083
sS'MainVetoSide'
p1223
I2380
sS'Not triggered events'
p1224
I8678
sS'Number of triggered events'
p1225
I86408
sS'Number of vetoed events'
p1226
I4914
sS'MainTriggerCZT'
p1227
I21376
sS'MainVetoTop'
p1228
I2563
ssS'./TraFiles/FarFieldPointSource_1.584MeV_Cos0.7.inc1.id1.tra'
p1229
(dp1230
g3
S'0.7'
p1231
sS'MainTriggerCsI'
p1232
I3296
sS'MainTriggerSi'
p1233
I85826
sg7
S'1.584'
p1234
sS'MainTriggerCZTSide'
p1235
I12039
sS'MainVetoSide'
p1236
I2528
sS'Not triggered events'
p1237
I9012
sS'Number of triggered events'
p1238
I85826
sS'Number of vetoed events'
p1239
I5162
sS'MainTriggerCZT'
p1240
I19921
sS'MainVetoTop'
p1241
I2664
ssS'./TraFiles/FarFieldPointSource_1.000MeV_Cos0.5.inc1.id1.tra'
p1242
(dp1243
g3
S'0.5'
p1244
sS'MainTriggerCsI'
p1245
I1137
sS'MainTriggerSi'
p1246
I82778
sg7
S'1.000'
p1247
sS'MainTriggerCZTSide'
p1248
I10483
sS'MainVetoSide'
p1249
I1482
sS'Not triggered events'
p1250
I13887
sS'Number of triggered events'
p1251
I82778
sS'Number of vetoed events'
p1252
I3335
sS'MainTriggerCZT'
p1253
I17223
sS'MainVetoTop'
p1254
I1853
ssS'./TraFiles/FarFieldPointSource_0.501MeV_Cos1.0.inc1.id1.tra'
p1255
(dp1256
g3
S'1.0'
p1257
sS'MainTriggerCsI'
p1258
I259
sS'MainTriggerSi'
p1259
I75052
sg7
S'0.501'
p1260
sS'MainTriggerCZTSide'
p1261
I7671
sS'Not triggered events'
p1262
I24948
sS'Number of triggered events'
p1263
I75052
sS'Number of vetoed events'
p1264
I0
sS'MainTriggerCZT'
p1265
I14423
ssS'./TraFiles/FarFieldPointSource_5011.872MeV_Cos0.8.inc1.id1.tra'
p1266
(dp1267
g3
S'0.8'
p1268
sS'MainTriggerCsI'
p1269
I65749
sS'MainTriggerSi'
p1270
I67337
sg7
S'5011.872'
p1271
sS'MainTriggerCZTSide'
p1272
I22507
sS'MainVetoSide'
p1273
I28638
sS'Not triggered events'
p1274
I2753
sS'Number of triggered events'
p1275
I67337
sS'Number of vetoed events'
p1276
I29910
sS'MainTriggerCZT'
p1277
I32578
sS'MainVetoTop'
p1278
I5436
ssS'./TraFiles/FarFieldPointSource_100.000MeV_Cos1.0.inc1.id1.tra'
p1279
(dp1280
g3
S'1.0'
p1281
sS'MainTriggerCsI'
p1282
I66526
sS'MainTriggerSi'
p1283
I75911
sg7
S'100.000'
p1284
sS'MainTriggerCZTSide'
p1285
I44137
sS'MainVetoSide'
p1286
I10201
sS'Not triggered events'
p1287
I8734
sS'Number of triggered events'
p1288
I75911
sS'Number of vetoed events'
p1289
I15355
sS'MainTriggerCZT'
p1290
I72744
sS'MainVetoTop'
p1291
I5984
ssS'./TraFiles/FarFieldPointSource_1000.000MeV_Cos0.6.inc1.id1.tra'
p1292
(dp1293
g3
S'0.6'
p1294
sS'MainTriggerCsI'
p1295
I52301
sS'MainTriggerSi'
p1296
I54339
sg7
S'1000.000'
p1297
sS'MainTriggerCZTSide'
p1298
I50011
sS'MainVetoSide'
p1299
I39642
sS'Not triggered events'
p1300
I3405
sS'Number of triggered events'
p1301
I54339
sS'Number of vetoed events'
p1302
I42256
sS'MainTriggerCZT'
p1303
I53096
sS'MainVetoTop'
p1304
I6918
ssS'./TraFiles/FarFieldPointSource_1000.000MeV_Cos0.9.inc1.id1.tra'
p1305
(dp1306
g3
S'0.9'
p1307
sS'MainTriggerCsI'
p1308
I60527
sS'MainTriggerSi'
p1309
I62116
sg7
S'1000.000'
p1310
sS'MainTriggerCZTSide'
p1311
I50965
sS'MainVetoSide'
p1312
I28785
sS'Not triggered events'
p1313
I5537
sS'Number of triggered events'
p1314
I62116
sS'Number of vetoed events'
p1315
I32347
sS'MainTriggerCZT'
p1316
I60897
sS'MainVetoTop'
p1317
I5569
ssS'./TraFiles/FarFieldPointSource_158.489MeV_Cos0.6.inc1.id1.tra'
p1318
(dp1319
g3
S'0.6'
p1320
sS'MainTriggerCsI'
p1321
I57633
sS'MainTriggerSi'
p1322
I66066
sg7
S'158.489'
p1323
sS'MainTriggerCZTSide'
p1324
I53406
sS'MainVetoSide'
p1325
I26506
sS'Not triggered events'
p1326
I5865
sS'Number of triggered events'
p1327
I66066
sS'Number of vetoed events'
p1328
I28069
sS'MainTriggerCZT'
p1329
I63090
sS'MainVetoTop'
p1330
I4684
ssS'./TraFiles/FarFieldPointSource_0.316MeV_Cos0.9.inc1.id1.tra'
p1331
(dp1332
g3
S'0.9'
p1333
sS'MainTriggerCsI'
p1334
I26
sS'MainTriggerSi'
p1335
I61714
sg7
S'0.316'
p1336
sS'MainTriggerCZTSide'
p1337
I4805
sS'Not triggered events'
p1338
I38286
sS'Number of triggered events'
p1339
I61714
sS'Number of vetoed events'
p1340
I0
sS'MainTriggerCZT'
p1341
I9486
ssS'./TraFiles/FarFieldPointSource_50.118MeV_Cos0.5.inc1.id1.tra'
p1342
(dp1343
g3
S'0.5'
p1344
sS'MainTriggerCsI'
p1345
I37183
sS'MainTriggerSi'
p1346
I68380
sg7
S'50.118'
p1347
sS'MainTriggerCZTSide'
p1348
I48580
sS'MainVetoSide'
p1349
I21925
sS'Not triggered events'
p1350
I7112
sS'Number of triggered events'
p1351
I68380
sS'Number of vetoed events'
p1352
I24508
sS'MainTriggerCZT'
p1353
I57777
sS'MainVetoTop'
p1354
I5773
ssS'./TraFiles/FarFieldPointSource_31.622MeV_Cos0.7.inc1.id1.tra'
p1355
(dp1356
g3
S'0.7'
p1357
sS'MainTriggerCsI'
p1358
I33431
sS'MainTriggerSi'
p1359
I74714
sg7
S'31.622'
p1360
sS'MainTriggerCZTSide'
p1361
I40603
sS'MainVetoSide'
p1362
I12876
sS'Not triggered events'
p1363
I7753
sS'Number of triggered events'
p1364
I74714
sS'Number of vetoed events'
p1365
I17533
sS'MainTriggerCZT'
p1366
I59720
sS'MainVetoTop'
p1367
I6486
ssS'./TraFiles/FarFieldPointSource_1.584MeV_Cos1.0.inc1.id1.tra'
p1368
(dp1369
g3
S'1.0'
p1370
sS'MainTriggerCsI'
p1371
I4804
sS'MainTriggerSi'
p1372
I88208
sg7
S'1.584'
p1373
sS'MainTriggerCZTSide'
p1374
I12400
sS'MainVetoSide'
p1375
I1376
sS'Not triggered events'
p1376
I7678
sS'Number of triggered events'
p1377
I88208
sS'Number of vetoed events'
p1378
I4114
sS'MainTriggerCZT'
p1379
I23363
sS'MainVetoTop'
p1380
I2760
ssS'./TraFiles/FarFieldPointSource_10.000MeV_Cos0.8.inc1.id1.tra'
p1381
(dp1382
g3
S'0.8'
p1383
sS'MainTriggerCsI'
p1384
I13904
sS'MainTriggerSi'
p1385
I80390
sg7
S'10.000'
p1386
sS'MainTriggerCZTSide'
p1387
I22524
sS'MainVetoSide'
p1388
I4219
sS'Not triggered events'
p1389
I7257
sS'Number of triggered events'
p1390
I80390
sS'Number of vetoed events'
p1391
I12353
sS'MainTriggerCZT'
p1392
I43493
sS'MainVetoTop'
p1393
I8797
ssS'./TraFiles/FarFieldPointSource_501.187MeV_Cos0.9.inc1.id1.tra'
p1394
(dp1395
g3
S'0.9'
p1396
sS'MainTriggerCsI'
p1397
I63831
sS'MainTriggerSi'
p1398
I66146
sg7
S'501.187'
p1399
sS'MainTriggerCZTSide'
p1400
I50841
sS'MainVetoSide'
p1401
I24275
sS'Not triggered events'
p1402
I6114
sS'Number of triggered events'
p1403
I66146
sS'Number of vetoed events'
p1404
I27740
sS'MainTriggerCZT'
p1405
I64637
sS'MainVetoTop'
p1406
I5111
ssS'./TraFiles/FarFieldPointSource_0.158MeV_Cos0.5.inc1.id1.tra'
p1407
(dp1408
g3
S'0.5'
p1409
sS'MainTriggerSi'
p1410
I39167
sg7
S'0.158'
p1411
sS'MainTriggerCZTSide'
p1412
I946
sS'Not triggered events'
p1413
I60833
sS'Number of triggered events'
p1414
I39167
sS'Number of vetoed events'
p1415
I0
sS'MainTriggerCZT'
p1416
I2258
ssS'./TraFiles/FarFieldPointSource_3.162MeV_Cos0.6.inc1.id1.tra'
p1417
(dp1418
g3
S'0.6'
p1419
sS'MainTriggerCsI'
p1420
I5765
sS'MainTriggerSi'
p1421
I85129
sg7
S'3.162'
p1422
sS'MainTriggerCZTSide'
p1423
I14378
sS'MainVetoSide'
p1424
I3652
sS'Not triggered events'
p1425
I6402
sS'Number of triggered events'
p1426
I85129
sS'Number of vetoed events'
p1427
I8469
sS'MainTriggerCZT'
p1428
I24859
sS'MainVetoTop'
p1429
I5005
ssS'./TraFiles/FarFieldPointSource_10.000MeV_Cos0.7.inc1.id1.tra'
p1430
(dp1431
g3
S'0.7'
p1432
sS'MainTriggerCsI'
p1433
I12308
sS'MainTriggerSi'
p1434
I80588
sg7
S'10.000'
p1435
sS'MainTriggerCZTSide'
p1436
I22896
sS'MainVetoSide'
p1437
I4647
sS'Not triggered events'
p1438
I6926
sS'Number of triggered events'
p1439
I80588
sS'Number of vetoed events'
p1440
I12486
sS'MainTriggerCZT'
p1441
I41514
sS'MainVetoTop'
p1442
I8554
ss.