(dp0
S'./FarFieldPointSource_3.162MeV_Cos0.6.inc1.id1.sim'
p1
(dp2
S'Cos'
p3
S'0.6'
p4
sS'numberOfTriggers'
p5
F100000.0
sS'MeV'
p6
S'3.162'
p7
sS'numberOfSimulatedEvents'
p8
F85612298.0
ssS'./FarFieldPointSource_10.000MeV_Cos0.9.inc1.id1.sim'
p9
(dp10
g3
S'0.9'
p11
sg5
F100000.0
sg6
S'10.000'
p12
sg8
F40009720.0
ssS'./FarFieldPointSource_50.118MeV_Cos0.6.inc1.id1.sim'
p13
(dp14
g3
S'0.6'
p15
sg5
F100000.0
sg6
S'50.118'
p16
sg8
F24447119.0
ssS'./FarFieldPointSource_10.000MeV_Cos0.7.inc1.id1.sim'
p17
(dp18
g3
S'0.7'
p19
sg5
F100000.0
sg6
S'10.000'
p20
sg8
F43701190.0
ssS'./FarFieldPointSource_5.011MeV_Cos0.9.inc1.id1.sim'
p21
(dp22
g3
S'0.9'
p23
sg5
F100000.0
sg6
S'5.011'
p24
sg8
F59557185.0
ssS'./FarFieldPointSource_100.000MeV_Cos0.9.inc1.id1.sim'
p25
(dp26
g3
S'0.9'
p27
sg5
F100000.0
sg6
S'100.000'
p28
sg8
F18927110.0
ssS'./FarFieldPointSource_3.162MeV_Cos0.7.inc1.id1.sim'
p29
(dp30
g3
S'0.7'
p31
sg5
F100000.0
sg6
S'3.162'
p32
sg8
F82405192.0
ssS'./FarFieldPointSource_158.489MeV_Cos0.6.inc1.id1.sim'
p33
(dp34
g3
S'0.6'
p35
sg5
F100000.0
sg6
S'158.489'
p36
sg8
F17748651.0
ssS'./FarFieldPointSource_0.501MeV_Cos0.8.inc1.id1.sim'
p37
(dp38
g3
S'0.8'
p39
sg5
F100000.0
sg6
S'0.501'
p40
sg8
F198678680.0
ssS'./FarFieldPointSource_158.489MeV_Cos0.7.inc1.id1.sim'
p41
(dp42
g3
S'0.7'
p43
sg5
F100000.0
sg6
S'158.489'
p44
sg8
F17696220.0
ssS'./FarFieldPointSource_0.316MeV_Cos0.7.inc1.id1.sim'
p45
(dp46
g3
S'0.7'
p47
sg5
F100000.0
sg6
S'0.316'
p48
sg8
F213722656.0
ssS'./FarFieldPointSource_1.000MeV_Cos0.9.inc1.id1.sim'
p49
(dp50
g3
S'0.9'
p51
sg5
F100000.0
sg6
S'1.000'
p52
sg8
F140942564.0
ssS'./FarFieldPointSource_50.118MeV_Cos0.5.inc1.id1.sim'
p53
(dp54
g3
S'0.5'
p55
sg5
F100000.0
sg6
S'50.118'
p56
sg8
F25317370.0
ssS'./FarFieldPointSource_1.584MeV_Cos0.6.inc1.id1.sim'
p57
(dp58
g3
S'0.6'
p59
sg5
F100000.0
sg6
S'1.584'
p60
sg8
F116080626.0
ssS'./FarFieldPointSource_10.000MeV_Cos0.5.inc1.id1.sim'
p61
(dp62
g3
S'0.5'
p63
sg5
F100000.0
sg6
S'10.000'
p64
sg8
F47792608.0
ssS'./FarFieldPointSource_15.848MeV_Cos0.8.inc1.id1.sim'
p65
(dp66
g3
S'0.8'
p67
sg5
F100000.0
sg6
S'15.848'
p68
sg8
F32125635.0
ssS'./FarFieldPointSource_31.622MeV_Cos1.0.inc1.id1.sim'
p69
(dp70
g3
S'1.0'
p71
sg5
F100000.0
sg6
S'31.622'
p72
sg8
F23721548.0
ssS'./FarFieldPointSource_158.489MeV_Cos0.5.inc1.id1.sim'
p73
(dp74
g3
S'0.5'
p75
sg5
F100000.0
sg6
S'158.489'
p76
sg8
F17729532.0
ssS'./FarFieldPointSource_1.000MeV_Cos0.6.inc1.id1.sim'
p77
(dp78
g3
S'0.6'
p79
sg5
F100000.0
sg6
S'1.000'
p80
sg8
F148217845.0
ssS'./FarFieldPointSource_31.622MeV_Cos0.8.inc1.id1.sim'
p81
(dp82
g3
S'0.8'
p83
sg5
F100000.0
sg6
S'31.622'
p84
sg8
F24964667.0
ssS'./FarFieldPointSource_100.000MeV_Cos0.8.inc1.id1.sim'
p85
(dp86
g3
S'0.8'
p87
sg5
F100000.0
sg6
S'100.000'
p88
sg8
F19462580.0
ssS'./FarFieldPointSource_0.501MeV_Cos0.9.inc1.id1.sim'
p89
(dp90
g3
S'0.9'
p91
sg5
F100000.0
sg6
S'0.501'
p92
sg8
F194184651.0
ssS'./FarFieldPointSource_1.000MeV_Cos0.8.inc1.id1.sim'
p93
(dp94
g3
S'0.8'
p95
sg5
F100000.0
sg6
S'1.000'
p96
sg8
F143996012.0
ssS'./FarFieldPointSource_0.316MeV_Cos0.5.inc1.id1.sim'
p97
(dp98
g3
S'0.5'
p99
sg5
F100000.0
sg6
S'0.316'
p100
sg8
F215906900.0
ssS'./FarFieldPointSource_100.000MeV_Cos0.6.inc1.id1.sim'
p101
(dp102
g3
S'0.6'
p103
sg5
F100000.0
sg6
S'100.000'
p104
sg8
F20229935.0
ssS'./FarFieldPointSource_31.622MeV_Cos0.9.inc1.id1.sim'
p105
(dp106
g3
S'0.9'
p107
sg5
F100000.0
sg6
S'31.622'
p108
sg8
F23809126.0
ssS'./FarFieldPointSource_5.011MeV_Cos0.5.inc1.id1.sim'
p109
(dp110
g3
S'0.5'
p111
sg5
F100000.0
sg6
S'5.011'
p112
sg8
F71809387.0
ssS'./FarFieldPointSource_0.501MeV_Cos1.0.inc1.id1.sim'
p113
(dp114
g3
S'1.0'
p115
sg5
F100000.0
sg6
S'0.501'
p116
sg8
F192950367.0
ssS'./FarFieldPointSource_3.162MeV_Cos0.9.inc1.id1.sim'
p117
(dp118
g3
S'0.9'
p119
sg5
F100000.0
sg6
S'3.162'
p120
sg8
F74323425.0
ssS'./FarFieldPointSource_3.162MeV_Cos1.0.inc1.id1.sim'
p121
(dp122
g3
S'1.0'
p123
sg5
F100000.0
sg6
S'3.162'
p124
sg8
F71914306.0
ssS'./FarFieldPointSource_0.316MeV_Cos0.6.inc1.id1.sim'
p125
(dp126
g3
S'0.6'
p127
sg5
F100000.0
sg6
S'0.316'
p128
sg8
F216021409.0
ssS'./FarFieldPointSource_0.316MeV_Cos0.8.inc1.id1.sim'
p129
(dp130
g3
S'0.8'
p131
sg5
F100000.0
sg6
S'0.316'
p132
sg8
F208343297.0
ssS'./FarFieldPointSource_1.584MeV_Cos0.8.inc1.id1.sim'
p133
(dp134
g3
S'0.8'
p135
sg5
F100000.0
sg6
S'1.584'
p136
sg8
F109456115.0
ssS'./FarFieldPointSource_158.489MeV_Cos1.0.inc1.id1.sim'
p137
(dp138
g3
S'1.0'
p139
sg5
F100000.0
sg6
S'158.489'
p140
sg8
F17070291.0
ssS'./FarFieldPointSource_10.000MeV_Cos0.8.inc1.id1.sim'
p141
(dp142
g3
S'0.8'
p143
sg5
F100000.0
sg6
S'10.000'
p144
sg8
F41681520.0
ssS'./FarFieldPointSource_0.501MeV_Cos0.7.inc1.id1.sim'
p145
(dp146
g3
S'0.7'
p147
sg5
F100000.0
sg6
S'0.501'
p148
sg8
F201894799.0
ssS'./FarFieldPointSource_5.011MeV_Cos0.6.inc1.id1.sim'
p149
(dp150
g3
S'0.6'
p151
sg5
F100000.0
sg6
S'5.011'
p152
sg8
F68483977.0
ssS'./FarFieldPointSource_1.000MeV_Cos1.0.inc1.id1.sim'
p153
(dp154
g3
S'1.0'
p155
sg5
F100000.0
sg6
S'1.000'
p156
sg8
F136746230.0
ssS'./FarFieldPointSource_5.011MeV_Cos1.0.inc1.id1.sim'
p157
(dp158
g3
S'1.0'
p159
sg5
F100000.0
sg6
S'5.011'
p160
sg8
F58304983.0
ssS'./FarFieldPointSource_158.489MeV_Cos0.8.inc1.id1.sim'
p161
(dp162
g3
S'0.8'
p163
sg5
F100000.0
sg6
S'158.489'
p164
sg8
F17570260.0
ssS'./FarFieldPointSource_5.011MeV_Cos0.7.inc1.id1.sim'
p165
(dp166
g3
S'0.7'
p167
sg5
F100000.0
sg6
S'5.011'
p168
sg8
F65664600.0
ssS'./FarFieldPointSource_15.848MeV_Cos0.6.inc1.id1.sim'
p169
(dp170
g3
S'0.6'
p171
sg5
F100000.0
sg6
S'15.848'
p172
sg8
F35467604.0
ssS'./FarFieldPointSource_1.000MeV_Cos0.5.inc1.id1.sim'
p173
(dp174
g3
S'0.5'
p175
sg5
F100000.0
sg6
S'1.000'
p176
sg8
F148117741.0
ssS'./FarFieldPointSource_3.162MeV_Cos0.5.inc1.id1.sim'
p177
(dp178
g3
S'0.5'
p179
sg5
F100000.0
sg6
S'3.162'
p180
sg8
F88900085.0
ssS'./FarFieldPointSource_1.000MeV_Cos0.7.inc1.id1.sim'
p181
(dp182
g3
S'0.7'
p183
sg5
F100000.0
sg6
S'1.000'
p184
sg8
F148032516.0
ssS'./FarFieldPointSource_1.584MeV_Cos1.0.inc1.id1.sim'
p185
(dp186
g3
S'1.0'
p187
sg5
F100000.0
sg6
S'1.584'
p188
sg8
F99916245.0
ssS'./FarFieldPointSource_158.489MeV_Cos0.9.inc1.id1.sim'
p189
(dp190
g3
S'0.9'
p191
sg5
F100000.0
sg6
S'158.489'
p192
sg8
F17159942.0
ssS'./FarFieldPointSource_0.316MeV_Cos1.0.inc1.id1.sim'
p193
(dp194
g3
S'1.0'
p195
sg5
F100000.0
sg6
S'0.316'
p196
sg8
F202681101.0
ssS'./FarFieldPointSource_3.162MeV_Cos0.8.inc1.id1.sim'
p197
(dp198
g3
S'0.8'
p199
sg5
F100000.0
sg6
S'3.162'
p200
sg8
F78217995.0
ssS'./FarFieldPointSource_1.584MeV_Cos0.9.inc1.id1.sim'
p201
(dp202
g3
S'0.9'
p203
sg5
F100000.0
sg6
S'1.584'
p204
sg8
F104445642.0
ssS'./FarFieldPointSource_0.316MeV_Cos0.9.inc1.id1.sim'
p205
(dp206
g3
S'0.9'
p207
sg5
F100000.0
sg6
S'0.316'
p208
sg8
F201512086.0
ssS'./FarFieldPointSource_10.000MeV_Cos0.6.inc1.id1.sim'
p209
(dp210
g3
S'0.6'
p211
sg5
F100000.0
sg6
S'10.000'
p212
sg8
F45798054.0
ssS'./FarFieldPointSource_1.584MeV_Cos0.5.inc1.id1.sim'
p213
(dp214
g3
S'0.5'
p215
sg5
F100000.0
sg6
S'1.584'
p216
sg8
F117994905.0
ssS'./FarFieldPointSource_100.000MeV_Cos0.7.inc1.id1.sim'
p217
(dp218
g3
S'0.7'
p219
sg5
F100000.0
sg6
S'100.000'
p220
sg8
F19956441.0
ssS'./FarFieldPointSource_31.622MeV_Cos0.6.inc1.id1.sim'
p221
(dp222
g3
S'0.6'
p223
sg5
F100000.0
sg6
S'31.622'
p224
sg8
F27576658.0
ssS'./FarFieldPointSource_50.118MeV_Cos0.7.inc1.id1.sim'
p225
(dp226
g3
S'0.7'
p227
sg5
F100000.0
sg6
S'50.118'
p228
sg8
F23568323.0
ssS'./FarFieldPointSource_15.848MeV_Cos0.7.inc1.id1.sim'
p229
(dp230
g3
S'0.7'
p231
sg5
F100000.0
sg6
S'15.848'
p232
sg8
F33809001.0
ssS'./FarFieldPointSource_15.848MeV_Cos1.0.inc1.id1.sim'
p233
(dp234
g3
S'1.0'
p235
sg5
F100000.0
sg6
S'15.848'
p236
sg8
F30726205.0
ssS'./FarFieldPointSource_50.118MeV_Cos0.8.inc1.id1.sim'
p237
(dp238
g3
S'0.8'
p239
sg5
F100000.0
sg6
S'50.118'
p240
sg8
F22318149.0
ssS'./FarFieldPointSource_0.501MeV_Cos0.6.inc1.id1.sim'
p241
(dp242
g3
S'0.6'
p243
sg5
F100000.0
sg6
S'0.501'
p244
sg8
F202661794.0
ssS'./FarFieldPointSource_50.118MeV_Cos0.9.inc1.id1.sim'
p245
(dp246
g3
S'0.9'
p247
sg5
F100000.0
sg6
S'50.118'
p248
sg8
F21487123.0
ssS'./FarFieldPointSource_15.848MeV_Cos0.9.inc1.id1.sim'
p249
(dp250
g3
S'0.9'
p251
sg5
F100000.0
sg6
S'15.848'
p252
sg8
F30936517.0
ssS'./FarFieldPointSource_15.848MeV_Cos0.5.inc1.id1.sim'
p253
(dp254
g3
S'0.5'
p255
sg5
F100000.0
sg6
S'15.848'
p256
sg8
F37194627.0
ssS'./FarFieldPointSource_0.501MeV_Cos0.5.inc1.id1.sim'
p257
(dp258
g3
S'0.5'
p259
sg5
F100000.0
sg6
S'0.501'
p260
sg8
F202262012.0
ssS'./FarFieldPointSource_5.011MeV_Cos0.8.inc1.id1.sim'
p261
(dp262
g3
S'0.8'
p263
sg5
F100000.0
sg6
S'5.011'
p264
sg8
F62779403.0
ssS'./FarFieldPointSource_1.584MeV_Cos0.7.inc1.id1.sim'
p265
(dp266
g3
S'0.7'
p267
sg5
F100000.0
sg6
S'1.584'
p268
sg8
F113951046.0
ssS'./FarFieldPointSource_100.000MeV_Cos1.0.inc1.id1.sim'
p269
(dp270
g3
S'1.0'
p271
sg5
F100000.0
sg6
S'100.000'
p272
sg8
F18747006.0
ssS'./FarFieldPointSource_10.000MeV_Cos1.0.inc1.id1.sim'
p273
(dp274
g3
S'1.0'
p275
sg5
F100000.0
sg6
S'10.000'
p276
sg8
F39590984.0
ssS'./FarFieldPointSource_31.622MeV_Cos0.5.inc1.id1.sim'
p277
(dp278
g3
S'0.5'
p279
sg5
F100000.0
sg6
S'31.622'
p280
sg8
F28974227.0
ssS'./FarFieldPointSource_31.622MeV_Cos0.7.inc1.id1.sim'
p281
(dp282
g3
S'0.7'
p283
sg5
F100000.0
sg6
S'31.622'
p284
sg8
F26380244.0
ssS'./FarFieldPointSource_100.000MeV_Cos0.5.inc1.id1.sim'
p285
(dp286
g3
S'0.5'
p287
sg5
F100000.0
sg6
S'100.000'
p288
sg8
F20735576.0
ssS'./FarFieldPointSource_50.118MeV_Cos1.0.inc1.id1.sim'
p289
(dp290
g3
S'1.0'
p291
sg5
F100000.0
sg6
S'50.118'
p292
sg8
F21281546.0
ss.