(dp0
S'./FarFieldPointSource_3.162MeV_Cos0.7.inc1.id1.tra'
p1
(dp2
S'Cos'
p3
S'0.7'
p4
sS'MainTrigger'
p5
I83313
sS'MeV'
p6
S'3.162'
p7
sS'MainVetoSide'
p8
I2762
sS'Not triggered events'
p9
I12590
sS'Number of triggered events'
p10
I83313
sS'Number of vetoed events'
p11
I4097
sS'MainVetoTop'
p12
I1335
ssS'./FarFieldPointSource_0.501MeV_Cos0.8.inc1.id1.tra'
p13
(dp14
g3
S'0.8'
p15
sS'MainTrigger'
p16
I55887
sg6
S'0.501'
p17
sS'Not triggered events'
p18
I44113
sS'Number of triggered events'
p19
I55887
sS'Number of vetoed events'
p20
I0
ssS'./FarFieldPointSource_3.162MeV_Cos0.5.inc1.id1.tra'
p21
(dp22
g3
S'0.5'
p23
sS'MainTrigger'
p24
I82782
sg6
S'3.162'
p25
sS'MainVetoSide'
p26
I3043
sS'Not triggered events'
p27
I12937
sS'Number of triggered events'
p28
I82782
sS'Number of vetoed events'
p29
I4281
sS'MainVetoTop'
p30
I1238
ssS'./FarFieldPointSource_5.011MeV_Cos0.5.inc1.id1.tra'
p31
(dp32
g3
S'0.5'
p33
sS'MainTrigger'
p34
I82135
sg6
S'5.011'
p35
sS'MainVetoSide'
p36
I4457
sS'Not triggered events'
p37
I11895
sS'Number of triggered events'
p38
I82135
sS'Number of vetoed events'
p39
I5970
sS'MainVetoTop'
p40
I1513
ssS'./FarFieldPointSource_0.501MeV_Cos0.5.inc1.id1.tra'
p41
(dp42
g3
S'0.5'
p43
sS'MainTrigger'
p44
I57801
sg6
S'0.501'
p45
sS'Not triggered events'
p46
I42199
sS'Number of triggered events'
p47
I57801
sS'Number of vetoed events'
p48
I0
ssS'./FarFieldPointSource_0.501MeV_Cos0.7.inc1.id1.tra'
p49
(dp50
g3
S'0.7'
p51
sS'MainTrigger'
p52
I56334
sg6
S'0.501'
p53
sS'Not triggered events'
p54
I43666
sS'Number of triggered events'
p55
I56334
sS'Number of vetoed events'
p56
I0
ssS'./FarFieldPointSource_100.000MeV_Cos0.9.inc1.id1.tra'
p57
(dp58
g3
S'0.9'
p59
sS'MainTrigger'
p60
I53117
sg6
S'100.000'
p61
sS'MainVetoSide'
p62
I10170
sS'Not triggered events'
p63
I35116
sS'Number of triggered events'
p64
I53117
sS'Number of vetoed events'
p65
I11767
sS'MainVetoTop'
p66
I1597
ssS'./FarFieldPointSource_100.000MeV_Cos0.7.inc1.id1.tra'
p67
(dp68
g3
S'0.7'
p69
sS'MainTrigger'
p70
I50730
sg6
S'100.000'
p71
sS'MainVetoSide'
p72
I9732
sS'Not triggered events'
p73
I38342
sS'Number of triggered events'
p74
I50730
sS'Number of vetoed events'
p75
I10928
sS'MainVetoTop'
p76
I1196
ssS'./FarFieldPointSource_0.316MeV_Cos0.9.inc1.id1.tra'
p77
(dp78
g3
S'0.9'
p79
sS'MainTrigger'
p80
I36982
sg6
S'0.316'
p81
sS'Not triggered events'
p82
I63018
sS'Number of triggered events'
p83
I36982
sS'Number of vetoed events'
p84
I0
ssS'./FarFieldPointSource_10.000MeV_Cos0.8.inc1.id1.tra'
p85
(dp86
g3
S'0.8'
p87
sS'MainTrigger'
p88
I77259
sg6
S'10.000'
p89
sS'MainVetoSide'
p90
I7961
sS'Not triggered events'
p91
I10654
sS'Number of triggered events'
p92
I77259
sS'Number of vetoed events'
p93
I12087
sS'MainVetoTop'
p94
I4126
ssS'./FarFieldPointSource_0.316MeV_Cos0.5.inc1.id1.tra'
p95
(dp96
g3
S'0.5'
p97
sS'MainTrigger'
p98
I37343
sg6
S'0.316'
p99
sS'Not triggered events'
p100
I62657
sS'Number of triggered events'
p101
I37343
sS'Number of vetoed events'
p102
I0
ssS'./FarFieldPointSource_1.584MeV_Cos0.8.inc1.id1.tra'
p103
(dp104
g3
S'0.8'
p105
sS'MainTrigger'
p106
I79037
sg6
S'1.584'
p107
sS'MainVetoSide'
p108
I2279
sS'Not triggered events'
p109
I17477
sS'Number of triggered events'
p110
I79037
sS'Number of vetoed events'
p111
I3486
sS'MainVetoTop'
p112
I1207
ssS'./FarFieldPointSource_50.118MeV_Cos0.9.inc1.id1.tra'
p113
(dp114
g3
S'0.9'
p115
sS'MainTrigger'
p116
I54284
sg6
S'50.118'
p117
sS'MainVetoSide'
p118
I11596
sS'Not triggered events'
p119
I31393
sS'Number of triggered events'
p120
I54284
sS'Number of vetoed events'
p121
I14323
sS'MainVetoTop'
p122
I2727
ssS'./FarFieldPointSource_1.584MeV_Cos0.7.inc1.id1.tra'
p123
(dp124
g3
S'0.7'
p125
sS'MainTrigger'
p126
I79379
sg6
S'1.584'
p127
sS'MainVetoSide'
p128
I2368
sS'Not triggered events'
p129
I17033
sS'Number of triggered events'
p130
I79379
sS'Number of vetoed events'
p131
I3588
sS'MainVetoTop'
p132
I1220
ssS'./FarFieldPointSource_50.118MeV_Cos0.7.inc1.id1.tra'
p133
(dp134
g3
S'0.7'
p135
sS'MainTrigger'
p136
I50224
sg6
S'50.118'
p137
sS'MainVetoSide'
p138
I11887
sS'Not triggered events'
p139
I36319
sS'Number of triggered events'
p140
I50224
sS'Number of vetoed events'
p141
I13457
sS'MainVetoTop'
p142
I1570
ssS'./FarFieldPointSource_3.162MeV_Cos1.0.inc1.id1.tra'
p143
(dp144
g3
S'1.0'
p145
sS'MainTrigger'
p146
I84952
sg6
S'3.162'
p147
sS'MainVetoSide'
p148
I1395
sS'Not triggered events'
p149
I12011
sS'Number of triggered events'
p150
I84952
sS'Number of vetoed events'
p151
I3037
sS'MainVetoTop'
p152
I1642
ssS'./FarFieldPointSource_100.000MeV_Cos0.8.inc1.id1.tra'
p153
(dp154
g3
S'0.8'
p155
sS'MainTrigger'
p156
I51172
sg6
S'100.000'
p157
sS'MainVetoSide'
p158
I9501
sS'Not triggered events'
p159
I38076
sS'Number of triggered events'
p160
I51172
sS'Number of vetoed events'
p161
I10752
sS'MainVetoTop'
p162
I1251
ssS'./FarFieldPointSource_5.011MeV_Cos1.0.inc1.id1.tra'
p163
(dp164
g3
S'1.0'
p165
sS'MainTrigger'
p166
I84739
sg6
S'5.011'
p167
sS'MainVetoSide'
p168
I1764
sS'Not triggered events'
p169
I11018
sS'Number of triggered events'
p170
I84739
sS'Number of vetoed events'
p171
I4243
sS'MainVetoTop'
p172
I2479
ssS'./FarFieldPointSource_1.584MeV_Cos1.0.inc1.id1.tra'
p173
(dp174
g3
S'1.0'
p175
sS'MainTrigger'
p176
I80518
sg6
S'1.584'
p177
sS'MainVetoSide'
p178
I1050
sS'Not triggered events'
p179
I17290
sS'Number of triggered events'
p180
I80518
sS'Number of vetoed events'
p181
I2192
sS'MainVetoTop'
p182
I1142
ssS'./FarFieldPointSource_0.316MeV_Cos0.6.inc1.id1.tra'
p183
(dp184
g3
S'0.6'
p185
sS'MainTrigger'
p186
I36971
sg6
S'0.316'
p187
sS'Not triggered events'
p188
I63029
sS'Number of triggered events'
p189
I36971
sS'Number of vetoed events'
p190
I0
ssS'./FarFieldPointSource_50.118MeV_Cos0.8.inc1.id1.tra'
p191
(dp192
g3
S'0.8'
p193
sS'MainTrigger'
p194
I51081
sg6
S'50.118'
p195
sS'MainVetoSide'
p196
I11734
sS'Not triggered events'
p197
I35296
sS'Number of triggered events'
p198
I51081
sS'Number of vetoed events'
p199
I13623
sS'MainVetoTop'
p200
I1889
ssS'./FarFieldPointSource_158.489MeV_Cos0.9.inc1.id1.tra'
p201
(dp202
g3
S'0.9'
p203
sS'MainTrigger'
p204
I54330
sg6
S'158.489'
p205
sS'MainVetoSide'
p206
I9212
sS'Not triggered events'
p207
I35085
sS'Number of triggered events'
p208
I54330
sS'Number of vetoed events'
p209
I10585
sS'MainVetoTop'
p210
I1373
ssS'./FarFieldPointSource_1.000MeV_Cos0.7.inc1.id1.tra'
p211
(dp212
g3
S'0.7'
p213
sS'MainTrigger'
p214
I73865
sg6
S'1.000'
p215
sS'MainVetoSide'
p216
I1630
sS'Not triggered events'
p217
I23669
sS'Number of triggered events'
p218
I73865
sS'Number of vetoed events'
p219
I2466
sS'MainVetoTop'
p220
I836
ssS'./FarFieldPointSource_15.848MeV_Cos1.0.inc1.id1.tra'
p221
(dp222
g3
S'1.0'
p223
sS'MainTrigger'
p224
I71154
sg6
S'15.848'
p225
sS'MainVetoSide'
p226
I6103
sS'Not triggered events'
p227
I15718
sS'Number of triggered events'
p228
I71154
sS'Number of vetoed events'
p229
I13128
sS'MainVetoTop'
p230
I7025
ssS'./FarFieldPointSource_5.011MeV_Cos0.8.inc1.id1.tra'
p231
(dp232
g3
S'0.8'
p233
sS'MainTrigger'
p234
I83459
sg6
S'5.011'
p235
sS'MainVetoSide'
p236
I3270
sS'Not triggered events'
p237
I11285
sS'Number of triggered events'
p238
I83459
sS'Number of vetoed events'
p239
I5256
sS'MainVetoTop'
p240
I1986
ssS'./FarFieldPointSource_1.584MeV_Cos0.6.inc1.id1.tra'
p241
(dp242
g3
S'0.6'
p243
sS'MainTrigger'
p244
I79782
sg6
S'1.584'
p245
sS'MainVetoSide'
p246
I2285
sS'Not triggered events'
p247
I16729
sS'Number of triggered events'
p248
I79782
sS'Number of vetoed events'
p249
I3489
sS'MainVetoTop'
p250
I1204
ssS'./FarFieldPointSource_10.000MeV_Cos0.5.inc1.id1.tra'
p251
(dp252
g3
S'0.5'
p253
sS'MainTrigger'
p254
I75149
sg6
S'10.000'
p255
sS'MainVetoSide'
p256
I11384
sS'Not triggered events'
p257
I10844
sS'Number of triggered events'
p258
I75149
sS'Number of vetoed events'
p259
I14007
sS'MainVetoTop'
p260
I2623
ssS'./FarFieldPointSource_100.000MeV_Cos0.5.inc1.id1.tra'
p261
(dp262
g3
S'0.5'
p263
sS'MainTrigger'
p264
I53754
sg6
S'100.000'
p265
sS'MainVetoSide'
p266
I10935
sS'Not triggered events'
p267
I34057
sS'Number of triggered events'
p268
I53754
sS'Number of vetoed events'
p269
I12189
sS'MainVetoTop'
p270
I1254
ssS'./FarFieldPointSource_0.316MeV_Cos0.7.inc1.id1.tra'
p271
(dp272
g3
S'0.7'
p273
sS'MainTrigger'
p274
I36999
sg6
S'0.316'
p275
sS'Not triggered events'
p276
I63001
sS'Number of triggered events'
p277
I36999
sS'Number of vetoed events'
p278
I0
ssS'./FarFieldPointSource_0.501MeV_Cos0.9.inc1.id1.tra'
p279
(dp280
g3
S'0.9'
p281
sS'MainTrigger'
p282
I55577
sg6
S'0.501'
p283
sS'Not triggered events'
p284
I44423
sS'Number of triggered events'
p285
I55577
sS'Number of vetoed events'
p286
I0
ssS'./FarFieldPointSource_10.000MeV_Cos1.0.inc1.id1.tra'
p287
(dp288
g3
S'1.0'
p289
sS'MainTrigger'
p290
I81025
sg6
S'10.000'
p291
sS'MainVetoSide'
p292
I3700
sS'Not triggered events'
p293
I9540
sS'Number of triggered events'
p294
I81025
sS'Number of vetoed events'
p295
I9435
sS'MainVetoTop'
p296
I5735
ssS'./FarFieldPointSource_15.848MeV_Cos0.7.inc1.id1.tra'
p297
(dp298
g3
S'0.7'
p299
sS'MainTrigger'
p300
I62566
sg6
S'15.848'
p301
sS'MainVetoSide'
p302
I14289
sS'Not triggered events'
p303
I19106
sS'Number of triggered events'
p304
I62566
sS'Number of vetoed events'
p305
I18328
sS'MainVetoTop'
p306
I4039
ssS'./FarFieldPointSource_158.489MeV_Cos0.5.inc1.id1.tra'
p307
(dp308
g3
S'0.5'
p309
sS'MainTrigger'
p310
I57167
sg6
S'158.489'
p311
sS'MainVetoSide'
p312
I10649
sS'Not triggered events'
p313
I30883
sS'Number of triggered events'
p314
I57167
sS'Number of vetoed events'
p315
I11950
sS'MainVetoTop'
p316
I1301
ssS'./FarFieldPointSource_31.622MeV_Cos0.5.inc1.id1.tra'
p317
(dp318
g3
S'0.5'
p319
sS'MainTrigger'
p320
I51522
sg6
S'31.622'
p321
sS'MainVetoSide'
p322
I15731
sS'Not triggered events'
p323
I30716
sS'Number of triggered events'
p324
I51522
sS'Number of vetoed events'
p325
I17762
sS'MainVetoTop'
p326
I2031
ssS'./FarFieldPointSource_100.000MeV_Cos0.6.inc1.id1.tra'
p327
(dp328
g3
S'0.6'
p329
sS'MainTrigger'
p330
I51900
sg6
S'100.000'
p331
sS'MainVetoSide'
p332
I10084
sS'Not triggered events'
p333
I36833
sS'Number of triggered events'
p334
I51900
sS'Number of vetoed events'
p335
I11267
sS'MainVetoTop'
p336
I1183
ssS'./FarFieldPointSource_15.848MeV_Cos0.5.inc1.id1.tra'
p337
(dp338
g3
S'0.5'
p339
sS'MainTrigger'
p340
I60793
sg6
S'15.848'
p341
sS'MainVetoSide'
p342
I16825
sS'Not triggered events'
p343
I19428
sS'Number of triggered events'
p344
I60793
sS'Number of vetoed events'
p345
I19779
sS'MainVetoTop'
p346
I2954
ssS'./FarFieldPointSource_5.011MeV_Cos0.7.inc1.id1.tra'
p347
(dp348
g3
S'0.7'
p349
sS'MainTrigger'
p350
I83048
sg6
S'5.011'
p351
sS'MainVetoSide'
p352
I3678
sS'Not triggered events'
p353
I11507
sS'Number of triggered events'
p354
I83048
sS'Number of vetoed events'
p355
I5445
sS'MainVetoTop'
p356
I1767
ssS'./FarFieldPointSource_1.584MeV_Cos0.9.inc1.id1.tra'
p357
(dp358
g3
S'0.9'
p359
sS'MainTrigger'
p360
I79278
sg6
S'1.584'
p361
sS'MainVetoSide'
p362
I2203
sS'Not triggered events'
p363
I17365
sS'Number of triggered events'
p364
I79278
sS'Number of vetoed events'
p365
I3357
sS'MainVetoTop'
p366
I1154
ssS'./FarFieldPointSource_1.000MeV_Cos0.5.inc1.id1.tra'
p367
(dp368
g3
S'0.5'
p369
sS'MainTrigger'
p370
I75367
sg6
S'1.000'
p371
sS'MainVetoSide'
p372
I1463
sS'Not triggered events'
p373
I22233
sS'Number of triggered events'
p374
I75367
sS'Number of vetoed events'
p375
I2400
sS'MainVetoTop'
p376
I937
ssS'./FarFieldPointSource_158.489MeV_Cos0.6.inc1.id1.tra'
p377
(dp378
g3
S'0.6'
p379
sS'MainTrigger'
p380
I55205
sg6
S'158.489'
p381
sS'MainVetoSide'
p382
I9545
sS'Not triggered events'
p383
I34060
sS'Number of triggered events'
p384
I55205
sS'Number of vetoed events'
p385
I10735
sS'MainVetoTop'
p386
I1190
ssS'./FarFieldPointSource_1.000MeV_Cos0.8.inc1.id1.tra'
p387
(dp388
g3
S'0.8'
p389
sS'MainTrigger'
p390
I73403
sg6
S'1.000'
p391
sS'MainVetoSide'
p392
I1671
sS'Not triggered events'
p393
I24208
sS'Number of triggered events'
p394
I73403
sS'Number of vetoed events'
p395
I2389
sS'MainVetoTop'
p396
I718
ssS'./FarFieldPointSource_50.118MeV_Cos0.6.inc1.id1.tra'
p397
(dp398
g3
S'0.6'
p399
sS'MainTrigger'
p400
I50459
sg6
S'50.118'
p401
sS'MainVetoSide'
p402
I12588
sS'Not triggered events'
p403
I35436
sS'Number of triggered events'
p404
I50459
sS'Number of vetoed events'
p405
I14105
sS'MainVetoTop'
p406
I1517
ssS'./FarFieldPointSource_10.000MeV_Cos0.7.inc1.id1.tra'
p407
(dp408
g3
S'0.7'
p409
sS'MainTrigger'
p410
I76474
sg6
S'10.000'
p411
sS'MainVetoSide'
p412
I9301
sS'Not triggered events'
p413
I10715
sS'Number of triggered events'
p414
I76474
sS'Number of vetoed events'
p415
I12811
sS'MainVetoTop'
p416
I3510
ssS'./FarFieldPointSource_50.118MeV_Cos0.5.inc1.id1.tra'
p417
(dp418
g3
S'0.5'
p419
sS'MainTrigger'
p420
I51250
sg6
S'50.118'
p421
sS'MainVetoSide'
p422
I13520
sS'Not triggered events'
p423
I33600
sS'Number of triggered events'
p424
I51250
sS'Number of vetoed events'
p425
I15150
sS'MainVetoTop'
p426
I1630
ssS'./FarFieldPointSource_0.501MeV_Cos1.0.inc1.id1.tra'
p427
(dp428
g3
S'1.0'
p429
sS'MainTrigger'
p430
I56849
sg6
S'0.501'
p431
sS'Not triggered events'
p432
I43151
sS'Number of triggered events'
p433
I56849
sS'Number of vetoed events'
p434
I0
ssS'./FarFieldPointSource_15.848MeV_Cos0.8.inc1.id1.tra'
p435
(dp436
g3
S'0.8'
p437
sS'MainTrigger'
p438
I64176
sg6
S'15.848'
p439
sS'MainVetoSide'
p440
I12528
sS'Not triggered events'
p441
I18564
sS'Number of triggered events'
p442
I64176
sS'Number of vetoed events'
p443
I17260
sS'MainVetoTop'
p444
I4732
ssS'./FarFieldPointSource_5.011MeV_Cos0.6.inc1.id1.tra'
p445
(dp446
g3
S'0.6'
p447
sS'MainTrigger'
p448
I82682
sg6
S'5.011'
p449
sS'MainVetoSide'
p450
I3960
sS'Not triggered events'
p451
I11748
sS'Number of triggered events'
p452
I82682
sS'Number of vetoed events'
p453
I5570
sS'MainVetoTop'
p454
I1610
ssS'./FarFieldPointSource_3.162MeV_Cos0.6.inc1.id1.tra'
p455
(dp456
g3
S'0.6'
p457
sS'MainTrigger'
p458
I83001
sg6
S'3.162'
p459
sS'MainVetoSide'
p460
I2900
sS'Not triggered events'
p461
I12764
sS'Number of triggered events'
p462
I83001
sS'Number of vetoed events'
p463
I4235
sS'MainVetoTop'
p464
I1335
ssS'./FarFieldPointSource_10.000MeV_Cos0.6.inc1.id1.tra'
p465
(dp466
g3
S'0.6'
p467
sS'MainTrigger'
p468
I75829
sg6
S'10.000'
p469
sS'MainVetoSide'
p470
I10454
sS'Not triggered events'
p471
I10750
sS'Number of triggered events'
p472
I75829
sS'Number of vetoed events'
p473
I13421
sS'MainVetoTop'
p474
I2967
ssS'./FarFieldPointSource_1.584MeV_Cos0.5.inc1.id1.tra'
p475
(dp476
g3
S'0.5'
p477
sS'MainTrigger'
p478
I80195
sg6
S'1.584'
p479
sS'MainVetoSide'
p480
I2383
sS'Not triggered events'
p481
I16198
sS'Number of triggered events'
p482
I80195
sS'Number of vetoed events'
p483
I3607
sS'MainVetoTop'
p484
I1224
ssS'./FarFieldPointSource_3.162MeV_Cos0.9.inc1.id1.tra'
p485
(dp486
g3
S'0.9'
p487
sS'MainTrigger'
p488
I83920
sg6
S'3.162'
p489
sS'MainVetoSide'
p490
I2200
sS'Not triggered events'
p491
I12304
sS'Number of triggered events'
p492
I83920
sS'Number of vetoed events'
p493
I3776
sS'MainVetoTop'
p494
I1576
ssS'./FarFieldPointSource_0.501MeV_Cos0.6.inc1.id1.tra'
p495
(dp496
g3
S'0.6'
p497
sS'MainTrigger'
p498
I57128
sg6
S'0.501'
p499
sS'Not triggered events'
p500
I42872
sS'Number of triggered events'
p501
I57128
sS'Number of vetoed events'
p502
I0
ssS'./FarFieldPointSource_1.000MeV_Cos1.0.inc1.id1.tra'
p503
(dp504
g3
S'1.0'
p505
sS'MainTrigger'
p506
I73512
sg6
S'1.000'
p507
sS'MainVetoSide'
p508
I584
sS'Not triggered events'
p509
I25447
sS'Number of triggered events'
p510
I73512
sS'Number of vetoed events'
p511
I1041
sS'MainVetoTop'
p512
I457
ssS'./FarFieldPointSource_15.848MeV_Cos0.6.inc1.id1.tra'
p513
(dp514
g3
S'0.6'
p515
sS'MainTrigger'
p516
I61429
sg6
S'15.848'
p517
sS'MainVetoSide'
p518
I15862
sS'Not triggered events'
p519
I19227
sS'Number of triggered events'
p520
I61429
sS'Number of vetoed events'
p521
I19344
sS'MainVetoTop'
p522
I3482
ssS'./FarFieldPointSource_0.316MeV_Cos0.8.inc1.id1.tra'
p523
(dp524
g3
S'0.8'
p525
sS'MainTrigger'
p526
I36873
sg6
S'0.316'
p527
sS'Not triggered events'
p528
I63127
sS'Number of triggered events'
p529
I36873
sS'Number of vetoed events'
p530
I0
ssS'./FarFieldPointSource_10.000MeV_Cos0.9.inc1.id1.tra'
p531
(dp532
g3
S'0.9'
p533
sS'MainTrigger'
p534
I79023
sg6
S'10.000'
p535
sS'MainVetoSide'
p536
I6198
sS'Not triggered events'
p537
I10081
sS'Number of triggered events'
p538
I79023
sS'Number of vetoed events'
p539
I10896
sS'MainVetoTop'
p540
I4698
ssS'./FarFieldPointSource_158.489MeV_Cos1.0.inc1.id1.tra'
p541
(dp542
g3
S'1.0'
p543
sS'MainTrigger'
p544
I63767
sg6
S'158.489'
p545
sS'MainVetoSide'
p546
I9545
sS'Not triggered events'
p547
I24421
sS'Number of triggered events'
p548
I63767
sS'Number of vetoed events'
p549
I11812
sS'MainVetoTop'
p550
I2267
ssS'./FarFieldPointSource_100.000MeV_Cos1.0.inc1.id1.tra'
p551
(dp552
g3
S'1.0'
p553
sS'MainTrigger'
p554
I62847
sg6
S'100.000'
p555
sS'MainVetoSide'
p556
I9129
sS'Not triggered events'
p557
I24775
sS'Number of triggered events'
p558
I62847
sS'Number of vetoed events'
p559
I12378
sS'MainVetoTop'
p560
I3249
ssS'./FarFieldPointSource_50.118MeV_Cos1.0.inc1.id1.tra'
p561
(dp562
g3
S'1.0'
p563
sS'MainTrigger'
p564
I62277
sg6
S'50.118'
p565
sS'MainVetoSide'
p566
I9035
sS'Not triggered events'
p567
I23646
sS'Number of triggered events'
p568
I62277
sS'Number of vetoed events'
p569
I14077
sS'MainVetoTop'
p570
I5042
ssS'./FarFieldPointSource_3.162MeV_Cos0.8.inc1.id1.tra'
p571
(dp572
g3
S'0.8'
p573
sS'MainTrigger'
p574
I83397
sg6
S'3.162'
p575
sS'MainVetoSide'
p576
I2589
sS'Not triggered events'
p577
I12574
sS'Number of triggered events'
p578
I83397
sS'Number of vetoed events'
p579
I4029
sS'MainVetoTop'
p580
I1440
ssS'./FarFieldPointSource_31.622MeV_Cos0.9.inc1.id1.tra'
p581
(dp582
g3
S'0.9'
p583
sS'MainTrigger'
p584
I56760
sg6
S'31.622'
p585
sS'MainVetoSide'
p586
I11848
sS'Not triggered events'
p587
I27654
sS'Number of triggered events'
p588
I56760
sS'Number of vetoed events'
p589
I15586
sS'MainVetoTop'
p590
I3738
ssS'./FarFieldPointSource_31.622MeV_Cos0.6.inc1.id1.tra'
p591
(dp592
g3
S'0.6'
p593
sS'MainTrigger'
p594
I51683
sg6
S'31.622'
p595
sS'MainVetoSide'
p596
I14426
sS'Not triggered events'
p597
I31821
sS'Number of triggered events'
p598
I51683
sS'Number of vetoed events'
p599
I16496
sS'MainVetoTop'
p600
I2070
ssS'./FarFieldPointSource_31.622MeV_Cos1.0.inc1.id1.tra'
p601
(dp602
g3
S'1.0'
p603
sS'MainTrigger'
p604
I63573
sg6
S'31.622'
p605
sS'MainVetoSide'
p606
I8176
sS'Not triggered events'
p607
I22196
sS'Number of triggered events'
p608
I63573
sS'Number of vetoed events'
p609
I14231
sS'MainVetoTop'
p610
I6055
ssS'./FarFieldPointSource_158.489MeV_Cos0.7.inc1.id1.tra'
p611
(dp612
g3
S'0.7'
p613
sS'MainTrigger'
p614
I53117
sg6
S'158.489'
p615
sS'MainVetoSide'
p616
I9201
sS'Not triggered events'
p617
I36594
sS'Number of triggered events'
p618
I53117
sS'Number of vetoed events'
p619
I10289
sS'MainVetoTop'
p620
I1088
ssS'./FarFieldPointSource_1.000MeV_Cos0.6.inc1.id1.tra'
p621
(dp622
g3
S'0.6'
p623
sS'MainTrigger'
p624
I74486
sg6
S'1.000'
p625
sS'MainVetoSide'
p626
I1540
sS'Not triggered events'
p627
I23116
sS'Number of triggered events'
p628
I74486
sS'Number of vetoed events'
p629
I2398
sS'MainVetoTop'
p630
I858
ssS'./FarFieldPointSource_31.622MeV_Cos0.7.inc1.id1.tra'
p631
(dp632
g3
S'0.7'
p633
sS'MainTrigger'
p634
I51832
sg6
S'31.622'
p635
sS'MainVetoSide'
p636
I13643
sS'Not triggered events'
p637
I32206
sS'Number of triggered events'
p638
I51832
sS'Number of vetoed events'
p639
I15962
sS'MainVetoTop'
p640
I2319
ssS'./FarFieldPointSource_158.489MeV_Cos0.8.inc1.id1.tra'
p641
(dp642
g3
S'0.8'
p643
sS'MainTrigger'
p644
I52846
sg6
S'158.489'
p645
sS'MainVetoSide'
p646
I8943
sS'Not triggered events'
p647
I37085
sS'Number of triggered events'
p648
I52846
sS'Number of vetoed events'
p649
I10069
sS'MainVetoTop'
p650
I1126
ssS'./FarFieldPointSource_1.000MeV_Cos0.9.inc1.id1.tra'
p651
(dp652
g3
S'0.9'
p653
sS'MainTrigger'
p654
I72838
sg6
S'1.000'
p655
sS'MainVetoSide'
p656
I1655
sS'Not triggered events'
p657
I24920
sS'Number of triggered events'
p658
I72838
sS'Number of vetoed events'
p659
I2242
sS'MainVetoTop'
p660
I587
ssS'./FarFieldPointSource_0.316MeV_Cos1.0.inc1.id1.tra'
p661
(dp662
g3
S'1.0'
p663
sS'MainTrigger'
p664
I39162
sg6
S'0.316'
p665
sS'Not triggered events'
p666
I60838
sS'Number of triggered events'
p667
I39162
sS'Number of vetoed events'
p668
I0
ssS'./FarFieldPointSource_5.011MeV_Cos0.9.inc1.id1.tra'
p669
(dp670
g3
S'0.9'
p671
sS'MainTrigger'
p672
I83839
sg6
S'5.011'
p673
sS'MainVetoSide'
p674
I2733
sS'Not triggered events'
p675
I11169
sS'Number of triggered events'
p676
I83839
sS'Number of vetoed events'
p677
I4992
sS'MainVetoTop'
p678
I2259
ssS'./FarFieldPointSource_15.848MeV_Cos0.9.inc1.id1.tra'
p679
(dp680
g3
S'0.9'
p681
sS'MainTrigger'
p682
I66987
sg6
S'15.848'
p683
sS'MainVetoSide'
p684
I9997
sS'Not triggered events'
p685
I17431
sS'Number of triggered events'
p686
I66987
sS'Number of vetoed events'
p687
I15582
sS'MainVetoTop'
p688
I5585
ssS'./FarFieldPointSource_31.622MeV_Cos0.8.inc1.id1.tra'
p689
(dp690
g3
S'0.8'
p691
sS'MainTrigger'
p692
I53318
sg6
S'31.622'
p693
sS'MainVetoSide'
p694
I13114
sS'Not triggered events'
p695
I30747
sS'Number of triggered events'
p696
I53318
sS'Number of vetoed events'
p697
I15935
sS'MainVetoTop'
p698
I2821
ss.